EXPORTS
    ?$TSS0@?1??GetGlobalContextMenuObserver@CMenuWnd@DuiLib@@SAAAVObserverImpl@3@XZ@4HA @1
    ??0?$_Ptr_base@VImage@Gdiplus@@@std@@QAE@$$QAV01@@Z @2
    ??0?$_Ptr_base@VImage@Gdiplus@@@std@@QAE@XZ @3
    ??0?$shared_ptr@VImage@Gdiplus@@@std@@QAE@$$QAV01@@Z @4
    ??0?$shared_ptr@VImage@Gdiplus@@@std@@QAE@$$T@Z @5
    ??0?$shared_ptr@VImage@Gdiplus@@@std@@QAE@ABV01@@Z @6
    ??0?$shared_ptr@VImage@Gdiplus@@@std@@QAE@XZ @7
    ??0Attributes@CFlexLayoutUI@DuiLib@@QAE@$$QAV012@@Z @8
    ??0Attributes@CFlexLayoutUI@DuiLib@@QAE@ABV012@@Z @9
    ??0Attributes@CFlexLayoutUI@DuiLib@@QAE@XZ @10
    ??0Attributes@CFlowLayoutUI@DuiLib@@QAE@$$QAV012@@Z @11
    ??0Attributes@CFlowLayoutUI@DuiLib@@QAE@ABV012@@Z @12
    ??0Attributes@CFlowLayoutUI@DuiLib@@QAE@XZ @13
    ??0CActiveXUI@DuiLib@@QAE@ABV01@@Z @14
    ??0CActiveXUI@DuiLib@@QAE@XZ @15
    ??0CButtonLayoutUI@DuiLib@@QAE@$$QAV01@@Z @16
    ??0CButtonLayoutUI@DuiLib@@QAE@ABV01@@Z @17
    ??0CButtonLayoutUI@DuiLib@@QAE@XZ @18
    ??0CButtonUI@DuiLib@@QAE@$$QAV01@@Z @19
    ??0CButtonUI@DuiLib@@QAE@ABV01@@Z @20
    ??0CButtonUI@DuiLib@@QAE@XZ @21
    ??0CCheckBoxUI@DuiLib@@QAE@$$QAV01@@Z @22
    ??0CCheckBoxUI@DuiLib@@QAE@ABV01@@Z @23
    ??0CCheckBoxUI@DuiLib@@QAE@XZ @24
    ??0CChildLayoutUI@DuiLib@@QAE@$$QAV01@@Z @25
    ??0CChildLayoutUI@DuiLib@@QAE@ABV01@@Z @26
    ??0CChildLayoutUI@DuiLib@@QAE@XZ @27
    ??0CComboBoxUI@DuiLib@@QAE@$$QAV01@@Z @28
    ??0CComboBoxUI@DuiLib@@QAE@ABV01@@Z @29
    ??0CComboBoxUI@DuiLib@@QAE@XZ @30
    ??0CComboUI@DuiLib@@QAE@$$QAV01@@Z @31
    ??0CComboUI@DuiLib@@QAE@ABV01@@Z @32
    ??0CComboUI@DuiLib@@QAE@XZ @33
    ??0CContainerAccessibility@DuiLib@@QAE@$$QAV01@@Z @34
    ??0CContainerAccessibility@DuiLib@@QAE@ABV01@@Z @35
    ??0CContainerAccessibility@DuiLib@@QAE@PBVCContainerUI@1@@Z @36
    ??0CContainerUI@DuiLib@@QAE@ABV01@@Z @37
    ??0CContainerUI@DuiLib@@QAE@XZ @38
    ??0CControlAccessiblity@DuiLib@@QAE@$$QAV01@@Z @39
    ??0CControlAccessiblity@DuiLib@@QAE@ABV01@@Z @40
    ??0CControlAccessiblity@DuiLib@@QAE@PBVCControlUI@1@@Z @41
    ??0CControlUI@DuiLib@@QAE@ABV01@@Z @42
    ??0CControlUI@DuiLib@@QAE@XZ @43
    ??0CDateTimeUI@DuiLib@@QAE@$$QAV01@@Z @44
    ??0CDateTimeUI@DuiLib@@QAE@ABV01@@Z @45
    ??0CDateTimeUI@DuiLib@@QAE@XZ @46
    ??0CDefaultAccessibility@DuiLib@@QAE@$$QAV01@@Z @47
    ??0CDefaultAccessibility@DuiLib@@QAE@ABV01@@Z @48
    ??0CDefaultAccessibility@DuiLib@@QAE@XZ @49
    ??0CDelegateBase@DuiLib@@QAE@ABV01@@Z @50
    ??0CDelegateBase@DuiLib@@QAE@PAX0@Z @51
    ??0CDialogBuilder@DuiLib@@QAE@$$QAV01@@Z @52
    ??0CDialogBuilder@DuiLib@@QAE@ABV01@@Z @53
    ??0CDialogBuilder@DuiLib@@QAE@ABV?$basic_string@_WU?$char_traits@_W@std@@V?$allocator@_W@2@@std@@@Z @54
    ??0CDialogBuilder@DuiLib@@QAE@PB_WH@Z @55
    ??0CDuiRect@DuiLib@@QAE@ABUtagRECT@@@Z @56
    ??0CDuiRect@DuiLib@@QAE@HHHH@Z @57
    ??0CDuiRect@DuiLib@@QAE@XZ @58
    ??0CDuiString@DuiLib@@QAE@ABV01@@Z @59
    ??0CDuiString@DuiLib@@QAE@PB_WH@Z @60
    ??0CDuiString@DuiLib@@QAE@XZ @61
    ??0CDuiString@DuiLib@@QAE@_W@Z @62
    ??0CEditUI@DuiLib@@QAE@ABV01@@Z @63
    ??0CEditUI@DuiLib@@QAE@XZ @64
    ??0CEventSource@DuiLib@@QAE@ABV01@@Z @65
    ??0CEventSource@DuiLib@@QAE@XZ @66
    ??0CFlexLayoutUI@DuiLib@@QAE@ABV01@@Z @67
    ??0CFlexLayoutUI@DuiLib@@QAE@XZ @68
    ??0CFlowLayoutUI@DuiLib@@QAE@$$QAV01@@Z @69
    ??0CFlowLayoutUI@DuiLib@@QAE@ABV01@@Z @70
    ??0CFlowLayoutUI@DuiLib@@QAE@XZ @71
    ??0CGifAnimUI@DuiLib@@QAE@ABV01@@Z @72
    ??0CGifAnimUI@DuiLib@@QAE@XZ @73
    ??0CHeaderControlListener@DuiLib@@QAE@$$QAV01@@Z @74
    ??0CHeaderControlListener@DuiLib@@QAE@ABV01@@Z @75
    ??0CHeaderControlListener@DuiLib@@QAE@XZ @76
    ??0CHeaderControlUI@DuiLib@@QAE@ABV01@@Z @77
    ??0CHeaderControlUI@DuiLib@@QAE@XZ @78
    ??0CHorizontalLayoutUI@DuiLib@@QAE@$$QAV01@@Z @79
    ??0CHorizontalLayoutUI@DuiLib@@QAE@ABV01@@Z @80
    ??0CHorizontalLayoutUI@DuiLib@@QAE@XZ @81
    ??0CLabelUI@DuiLib@@QAE@ABV01@@Z @82
    ??0CLabelUI@DuiLib@@QAE@XZ @83
    ??0CListBodyUI@DuiLib@@QAE@ABV01@@Z @84
    ??0CListBodyUI@DuiLib@@QAE@PAVCListUI@1@@Z @85
    ??0CListContainerElementUI@DuiLib@@QAE@$$QAV01@@Z @86
    ??0CListContainerElementUI@DuiLib@@QAE@ABV01@@Z @87
    ??0CListContainerElementUI@DuiLib@@QAE@XZ @88
    ??0CListElementUI@DuiLib@@QAE@$$QAV01@@Z @89
    ??0CListElementUI@DuiLib@@QAE@ABV01@@Z @90
    ??0CListElementUI@DuiLib@@QAE@XZ @91
    ??0CListHeaderItemUI@DuiLib@@QAE@$$QAV01@@Z @92
    ??0CListHeaderItemUI@DuiLib@@QAE@ABV01@@Z @93
    ??0CListHeaderItemUI@DuiLib@@QAE@XZ @94
    ??0CListHeaderUI@DuiLib@@QAE@$$QAV01@@Z @95
    ??0CListHeaderUI@DuiLib@@QAE@ABV01@@Z @96
    ??0CListHeaderUI@DuiLib@@QAE@XZ @97
    ??0CListLabelElementUI@DuiLib@@QAE@$$QAV01@@Z @98
    ??0CListLabelElementUI@DuiLib@@QAE@ABV01@@Z @99
    ??0CListLabelElementUI@DuiLib@@QAE@XZ @100
    ??0CListTextElementUI@DuiLib@@QAE@ABV01@@Z @101
    ??0CListTextElementUI@DuiLib@@QAE@XZ @102
    ??0CListUI@DuiLib@@QAE@$$QAV01@@Z @103
    ??0CListUI@DuiLib@@QAE@ABV01@@Z @104
    ??0CListUI@DuiLib@@QAE@XZ @105
    ??0CMarkup@DuiLib@@QAE@PB_W@Z @106
    ??0CMarkupNode@DuiLib@@AAE@PAVCMarkup@1@H@Z @107
    ??0CMarkupNode@DuiLib@@AAE@XZ @108
    ??0CMenuElementUI@DuiLib@@QAE@ABV01@@Z @109
    ??0CMenuElementUI@DuiLib@@QAE@XZ @110
    ??0CMenuUI@DuiLib@@QAE@ABV01@@Z @111
    ??0CMenuUI@DuiLib@@QAE@XZ @112
    ??0CMenuWnd@DuiLib@@QAE@ABV01@@Z @113
    ??0CMenuWnd@DuiLib@@QAE@XZ @114
    ??0CNotifyPump@DuiLib@@QAE@ABV01@@Z @115
    ??0CNotifyPump@DuiLib@@QAE@XZ @116
    ??0COptionAccessibility@DuiLib@@QAE@$$QAV01@@Z @117
    ??0COptionAccessibility@DuiLib@@QAE@ABV01@@Z @118
    ??0COptionAccessibility@DuiLib@@QAE@PBVCOptionUI@1@@Z @119
    ??0COptionUI@DuiLib@@QAE@ABV01@@Z @120
    ??0COptionUI@DuiLib@@QAE@XZ @121
    ??0CPaintManagerUI@DuiLib@@QAE@ABV01@@Z @122
    ??0CPaintManagerUI@DuiLib@@QAE@XZ @123
    ??0CPoint@DuiLib@@QAE@ABUtagPOINT@@@Z @124
    ??0CPoint@DuiLib@@QAE@HH@Z @125
    ??0CPoint@DuiLib@@QAE@J@Z @126
    ??0CPoint@DuiLib@@QAE@XZ @127
    ??0CProgressUI@DuiLib@@QAE@$$QAV01@@Z @128
    ??0CProgressUI@DuiLib@@QAE@ABV01@@Z @129
    ??0CProgressUI@DuiLib@@QAE@XZ @130
    ??0CRichEditCustomerUI@DuiLib@@QAE@ABV01@@Z @131
    ??0CRichEditCustomerUI@DuiLib@@QAE@XZ @132
    ??0CRichEditUI@DuiLib@@QAE@ABV01@@Z @133
    ??0CRichEditUI@DuiLib@@QAE@XZ @134
    ??0CScrollBarUI@DuiLib@@QAE@$$QAV01@@Z @135
    ??0CScrollBarUI@DuiLib@@QAE@ABV01@@Z @136
    ??0CScrollBarUI@DuiLib@@QAE@XZ @137
    ??0CShadowUI@DuiLib@@QAE@ABV01@@Z @138
    ??0CShadowUI@DuiLib@@QAE@XZ @139
    ??0CSize@DuiLib@@QAE@ABUtagSIZE@@@Z @140
    ??0CSize@DuiLib@@QAE@HH@Z @141
    ??0CSize@DuiLib@@QAE@UtagRECT@@@Z @142
    ??0CSize@DuiLib@@QAE@XZ @143
    ??0CSliderUI@DuiLib@@QAE@$$QAV01@@Z @144
    ??0CSliderUI@DuiLib@@QAE@ABV01@@Z @145
    ??0CSliderUI@DuiLib@@QAE@XZ @146
    ??0CSplitterUI@DuiLib@@QAE@ABV01@@Z @147
    ??0CSplitterUI@DuiLib@@QAE@XZ @148
    ??0CStdIntArray@DuiLib@@QAE@ABV01@@Z @149
    ??0CStdIntArray@DuiLib@@QAE@H@Z @150
    ??0CStdPtrArray@DuiLib@@QAE@ABV01@@Z @151
    ??0CStdPtrArray@DuiLib@@QAE@H@Z @152
    ??0CStdStringPtrMap@DuiLib@@QAE@H@Z @153
    ??0CStdValArray@DuiLib@@QAE@HH@Z @154
    ??0CTabLayoutUI@DuiLib@@QAE@$$QAV01@@Z @155
    ??0CTabLayoutUI@DuiLib@@QAE@ABV01@@Z @156
    ??0CTabLayoutUI@DuiLib@@QAE@XZ @157
    ??0CTextUI@DuiLib@@QAE@ABV01@@Z @158
    ??0CTextUI@DuiLib@@QAE@XZ @159
    ??0CTileLayoutUI@DuiLib@@QAE@$$QAV01@@Z @160
    ??0CTileLayoutUI@DuiLib@@QAE@ABV01@@Z @161
    ??0CTileLayoutUI@DuiLib@@QAE@XZ @162
    ??0CTouchUtils@DuiLib@@QAE@XZ @163
    ??0CTreeNodeUI@DuiLib@@QAE@ABV01@@Z @164
    ??0CTreeNodeUI@DuiLib@@QAE@PAV01@@Z @165
    ??0CTreeViewUI@DuiLib@@QAE@ABV01@@Z @166
    ??0CTreeViewUI@DuiLib@@QAE@XZ @167
    ??0CVerticalLayoutUI@DuiLib@@QAE@$$QAV01@@Z @168
    ??0CVerticalLayoutUI@DuiLib@@QAE@ABV01@@Z @169
    ??0CVerticalLayoutUI@DuiLib@@QAE@XZ @170
    ??0CWaitCursor@DuiLib@@QAE@XZ @171
    ??0CWebBrowserUI@DuiLib@@QAE@ABV01@@Z @172
    ??0CWebBrowserUI@DuiLib@@QAE@XZ @173
    ??0CWindowAccessibility@DuiLib@@QAE@$$QAV01@@Z @174
    ??0CWindowAccessibility@DuiLib@@QAE@ABV01@@Z @175
    ??0CWindowAccessibility@DuiLib@@QAE@PBVCWindowWnd@1@@Z @176
    ??0CWindowAccessibility@DuiLib@@QAE@XZ @177
    ??0CWindowWnd@DuiLib@@QAE@ABV01@@Z @178
    ??0CWindowWnd@DuiLib@@QAE@XZ @179
    ??0ChatViewImageFilter@DuiLib@@IAE@XZ @180
    ??0ChatViewImageFilter@DuiLib@@QAE@ABV01@@Z @181
    ??0EmotionCacheInfo@DuiLib@@QAE@H@Z @182
    ??0EmotionCacheInfo@DuiLib@@QAE@PAUEmotionInfo@1@@Z @183
    ??0EmotionList@DuiLib@@AAE@XZ @184
    ??0EmotionList@DuiLib@@QAE@ABV01@@Z @185
    ??0EmotionManager@DuiLib@@QAE@$$QAV01@@Z @186
    ??0EmotionManager@DuiLib@@QAE@ABV01@@Z @187
    ??0EmotionManager@DuiLib@@QAE@XZ @188
    ??0EstimateContraint@DuiLib@@QAE@XZ @189
    ??0HookManager@DuiLib@@QAE@$$QAV01@@Z @190
    ??0HookManager@DuiLib@@QAE@ABV01@@Z @191
    ??0HookManager@DuiLib@@QAE@XZ @192
    ??0HotKeyManager@DuiLib@@QAE@ABV01@@Z @193
    ??0HotKeyManager@DuiLib@@QAE@XZ @194
    ??0IImageFilter@DuiLib@@QAE@ABV01@@Z @195
    ??0IImageFilter@DuiLib@@QAE@XZ @196
    ??0IResLoader@DuiLib@@QAE@ABV01@@Z @197
    ??0IResLoader@DuiLib@@QAE@XZ @198
    ??0IResLoaderManager@DuiLib@@QAE@ABV01@@Z @199
    ??0IResLoaderManager@DuiLib@@QAE@ABV?$shared_ptr@VIResLoader@DuiLib@@@std@@@Z @200
    ??0IResLoaderManager@DuiLib@@QAE@XZ @201
    ??0IRichEditCustomCallback@DuiLib@@QAE@$$QAV01@@Z @202
    ??0IRichEditCustomCallback@DuiLib@@QAE@ABV01@@Z @203
    ??0IRichEditCustomCallback@DuiLib@@QAE@XZ @204
    ??0IRichEditEventListener@DuiLib@@QAE@$$QAV01@@Z @205
    ??0IRichEditEventListener@DuiLib@@QAE@ABV01@@Z @206
    ??0IRichEditEventListener@DuiLib@@QAE@XZ @207
    ??0IRichEditHost@DuiLib@@QAE@$$QAV01@@Z @208
    ??0IRichEditHost@DuiLib@@QAE@ABV01@@Z @209
    ??0IRichEditHost@DuiLib@@QAE@XZ @210
    ??0IRichEditRender@DuiLib@@QAE@$$QAV01@@Z @211
    ??0IRichEditRender@DuiLib@@QAE@ABV01@@Z @212
    ??0IRichEditRender@DuiLib@@QAE@XZ @213
    ??0IStringLoader@DuiLib@@QAE@ABV01@@Z @214
    ??0IStringLoader@DuiLib@@QAE@XZ @215
    ??0IWindowManager@DuiLib@@QAE@$$QAV01@@Z @216
    ??0IWindowManager@DuiLib@@QAE@ABV01@@Z @217
    ??0IWindowManager@DuiLib@@QAE@XZ @218
    ??0IWindowUnderControl@DuiLib@@QAE@$$QAV01@@Z @219
    ??0IWindowUnderControl@DuiLib@@QAE@ABV01@@Z @220
    ??0IWindowUnderControl@DuiLib@@QAE@XZ @221
    ??0MonitorAdapter@DuiLib@@QAE@XZ @222
    ??0ObserverImpl@DuiLib@@QAE@ABV01@@Z @223
    ??0ObserverImpl@DuiLib@@QAE@XZ @224
    ??0ReceiverImpl@DuiLib@@QAE@ABV01@@Z @225
    ??0ReceiverImpl@DuiLib@@QAE@XZ @226
    ??0STRINGorID@DuiLib@@QAE@I@Z @227
    ??0STRINGorID@DuiLib@@QAE@PB_W@Z @228
    ??0TResData@DuiLib@@QAE@ABV01@@Z @229
    ??0TResData@DuiLib@@QAE@XZ @230
    ??0WindowImplBase@DuiLib@@QAE@ABV01@@Z @231
    ??0WindowImplBase@DuiLib@@QAE@XZ @232
    ??0tagTFontInfo@DuiLib@@QAE@$$QAU01@@Z @233
    ??0tagTFontInfo@DuiLib@@QAE@ABU01@@Z @234
    ??0tagTFontInfo@DuiLib@@QAE@XZ @235
    ??1?$shared_ptr@VImage@Gdiplus@@@std@@QAE@XZ @236
    ??1Attributes@CFlexLayoutUI@DuiLib@@QAE@XZ @237
    ??1Attributes@CFlowLayoutUI@DuiLib@@QAE@XZ @238
    ??1CActiveXUI@DuiLib@@UAE@XZ @239
    ??1CButtonLayoutUI@DuiLib@@UAE@XZ @240
    ??1CButtonUI@DuiLib@@UAE@XZ @241
    ??1CCheckBoxUI@DuiLib@@UAE@XZ @242
    ??1CChildLayoutUI@DuiLib@@UAE@XZ @243
    ??1CComboBoxUI@DuiLib@@UAE@XZ @244
    ??1CComboUI@DuiLib@@UAE@XZ @245
    ??1CContainerUI@DuiLib@@UAE@XZ @246
    ??1CControlUI@DuiLib@@UAE@XZ @247
    ??1CDateTimeUI@DuiLib@@UAE@XZ @248
    ??1CDelegateBase@DuiLib@@UAE@XZ @249
    ??1CDialogBuilder@DuiLib@@QAE@XZ @250
    ??1CDuiString@DuiLib@@QAE@XZ @251
    ??1CEditUI@DuiLib@@UAE@XZ @252
    ??1CEventSource@DuiLib@@QAE@XZ @253
    ??1CFlexLayoutUI@DuiLib@@UAE@XZ @254
    ??1CFlowLayoutUI@DuiLib@@UAE@XZ @255
    ??1CGifAnimUI@DuiLib@@UAE@XZ @256
    ??1CHeaderControlUI@DuiLib@@UAE@XZ @257
    ??1CHorizontalLayoutUI@DuiLib@@UAE@XZ @258
    ??1CLabelUI@DuiLib@@UAE@XZ @259
    ??1CListBodyUI@DuiLib@@UAE@XZ @260
    ??1CListContainerElementUI@DuiLib@@UAE@XZ @261
    ??1CListElementUI@DuiLib@@UAE@XZ @262
    ??1CListHeaderItemUI@DuiLib@@UAE@XZ @263
    ??1CListHeaderUI@DuiLib@@UAE@XZ @264
    ??1CListLabelElementUI@DuiLib@@UAE@XZ @265
    ??1CListTextElementUI@DuiLib@@UAE@XZ @266
    ??1CListUI@DuiLib@@UAE@XZ @267
    ??1CMarkup@DuiLib@@QAE@XZ @268
    ??1CMenuElementUI@DuiLib@@UAE@XZ @269
    ??1CMenuUI@DuiLib@@UAE@XZ @270
    ??1CMenuWnd@DuiLib@@UAE@XZ @271
    ??1CNotifyPump@DuiLib@@UAE@XZ @272
    ??1COptionUI@DuiLib@@UAE@XZ @273
    ??1CPaintManagerUI@DuiLib@@UAE@XZ @274
    ??1CProgressUI@DuiLib@@UAE@XZ @275
    ??1CRenderClip@DuiLib@@QAE@XZ @276
    ??1CRichEditCustomerUI@DuiLib@@UAE@XZ @277
    ??1CRichEditUI@DuiLib@@UAE@XZ @278
    ??1CScrollBarUI@DuiLib@@UAE@XZ @279
    ??1CShadowUI@DuiLib@@UAE@XZ @280
    ??1CSliderUI@DuiLib@@UAE@XZ @281
    ??1CSplitterUI@DuiLib@@UAE@XZ @282
    ??1CStdIntArray@DuiLib@@QAE@XZ @283
    ??1CStdPtrArray@DuiLib@@QAE@XZ @284
    ??1CStdStringPtrMap@DuiLib@@QAE@XZ @285
    ??1CStdValArray@DuiLib@@QAE@XZ @286
    ??1CTabLayoutUI@DuiLib@@UAE@XZ @287
    ??1CTextUI@DuiLib@@UAE@XZ @288
    ??1CTileLayoutUI@DuiLib@@UAE@XZ @289
    ??1CTouchUtils@DuiLib@@QAE@XZ @290
    ??1CTreeNodeUI@DuiLib@@UAE@XZ @291
    ??1CTreeViewUI@DuiLib@@UAE@XZ @292
    ??1CVerticalLayoutUI@DuiLib@@UAE@XZ @293
    ??1CWaitCursor@DuiLib@@QAE@XZ @294
    ??1CWebBrowserUI@DuiLib@@UAE@XZ @295
    ??1CWindowWnd@DuiLib@@UAE@XZ @296
    ??1ChatViewImageFilter@DuiLib@@UAE@XZ @297
    ??1EmotionList@DuiLib@@UAE@XZ @298
    ??1EmotionManager@DuiLib@@QAE@XZ @299
    ??1HotKeyManager@DuiLib@@UAE@XZ @300
    ??1IImageFilter@DuiLib@@UAE@XZ @301
    ??1IResLoader@DuiLib@@UAE@XZ @302
    ??1IResLoaderManager@DuiLib@@UAE@XZ @303
    ??1IStringLoader@DuiLib@@UAE@XZ @304
    ??1MonitorAdapter@DuiLib@@QAE@XZ @305
    ??1ObserverImpl@DuiLib@@UAE@XZ @306
    ??1ReceiverImpl@DuiLib@@UAE@XZ @307
    ??1TResData@DuiLib@@UAE@XZ @308
    ??1WindowImplBase@DuiLib@@UAE@XZ @309
    ??1tagTFontInfo@DuiLib@@QAE@XZ @310
    ??4?$_Ptr_base@VImage@Gdiplus@@@std@@QAEAAV01@$$QAV01@@Z @311
    ??4?$shared_ptr@VImage@Gdiplus@@@std@@QAEAAV01@$$QAV01@@Z @312
    ??4?$shared_ptr@VImage@Gdiplus@@@std@@QAEAAV01@ABV01@@Z @313
    ??4Attributes@CFlexLayoutUI@DuiLib@@QAEAAV012@$$QAV012@@Z @314
    ??4Attributes@CFlexLayoutUI@DuiLib@@QAEAAV012@ABV012@@Z @315
    ??4Attributes@CFlowLayoutUI@DuiLib@@QAEAAV012@$$QAV012@@Z @316
    ??4Attributes@CFlowLayoutUI@DuiLib@@QAEAAV012@ABV012@@Z @317
    ??4CActiveXUI@DuiLib@@QAEAAV01@ABV01@@Z @318
    ??4CButtonLayoutUI@DuiLib@@QAEAAV01@$$QAV01@@Z @319
    ??4CButtonLayoutUI@DuiLib@@QAEAAV01@ABV01@@Z @320
    ??4CButtonUI@DuiLib@@QAEAAV01@$$QAV01@@Z @321
    ??4CButtonUI@DuiLib@@QAEAAV01@ABV01@@Z @322
    ??4CCheckBoxUI@DuiLib@@QAEAAV01@$$QAV01@@Z @323
    ??4CCheckBoxUI@DuiLib@@QAEAAV01@ABV01@@Z @324
    ??4CChildLayoutUI@DuiLib@@QAEAAV01@$$QAV01@@Z @325
    ??4CChildLayoutUI@DuiLib@@QAEAAV01@ABV01@@Z @326
    ??4CComboBoxUI@DuiLib@@QAEAAV01@$$QAV01@@Z @327
    ??4CComboBoxUI@DuiLib@@QAEAAV01@ABV01@@Z @328
    ??4CComboUI@DuiLib@@QAEAAV01@$$QAV01@@Z @329
    ??4CComboUI@DuiLib@@QAEAAV01@ABV01@@Z @330
    ??4CContainerAccessibility@DuiLib@@QAEAAV01@$$QAV01@@Z @331
    ??4CContainerAccessibility@DuiLib@@QAEAAV01@ABV01@@Z @332
    ??4CContainerUI@DuiLib@@QAEAAV01@ABV01@@Z @333
    ??4CControlAccessiblity@DuiLib@@QAEAAV01@$$QAV01@@Z @334
    ??4CControlAccessiblity@DuiLib@@QAEAAV01@ABV01@@Z @335
    ??4CControlUI@DuiLib@@QAEAAV01@ABV01@@Z @336
    ??4CDPIUtils@DuiLib@@QAEAAV01@$$QAV01@@Z @337
    ??4CDPIUtils@DuiLib@@QAEAAV01@ABV01@@Z @338
    ??4CDateTimeUI@DuiLib@@QAEAAV01@$$QAV01@@Z @339
    ??4CDateTimeUI@DuiLib@@QAEAAV01@ABV01@@Z @340
    ??4CDefaultAccessibility@DuiLib@@QAEAAV01@$$QAV01@@Z @341
    ??4CDefaultAccessibility@DuiLib@@QAEAAV01@ABV01@@Z @342
    ??4CDelegateBase@DuiLib@@QAEAAV01@ABV01@@Z @343
    ??4CDialogBuilder@DuiLib@@QAEAAV01@$$QAV01@@Z @344
    ??4CDialogBuilder@DuiLib@@QAEAAV01@ABV01@@Z @345
    ??4CDuiRect@DuiLib@@QAEAAV01@$$QAV01@@Z @346
    ??4CDuiRect@DuiLib@@QAEAAV01@ABV01@@Z @347
    ??4CDuiString@DuiLib@@QAEABV01@ABV01@@Z @348
    ??4CDuiString@DuiLib@@QAEABV01@ABV?$basic_string@_WU?$char_traits@_W@std@@V?$allocator@_W@2@@std@@@Z @349
    ??4CDuiString@DuiLib@@QAEABV01@PBD@Z @350
    ??4CDuiString@DuiLib@@QAEABV01@PB_W@Z @351
    ??4CDuiString@DuiLib@@QAEABV01@_W@Z @352
    ??4CEditUI@DuiLib@@QAEAAV01@ABV01@@Z @353
    ??4CEventSource@DuiLib@@QAEAAV01@ABV01@@Z @354
    ??4CFlexLayoutUI@DuiLib@@QAEAAV01@ABV01@@Z @355
    ??4CFlowLayoutUI@DuiLib@@QAEAAV01@$$QAV01@@Z @356
    ??4CFlowLayoutUI@DuiLib@@QAEAAV01@ABV01@@Z @357
    ??4CGifAnimUI@DuiLib@@QAEAAV01@ABV01@@Z @358
    ??4CHeaderControlListener@DuiLib@@QAEAAV01@$$QAV01@@Z @359
    ??4CHeaderControlListener@DuiLib@@QAEAAV01@ABV01@@Z @360
    ??4CHeaderControlUI@DuiLib@@QAEAAV01@ABV01@@Z @361
    ??4CHorizontalLayoutUI@DuiLib@@QAEAAV01@$$QAV01@@Z @362
    ??4CHorizontalLayoutUI@DuiLib@@QAEAAV01@ABV01@@Z @363
    ??4CLabelUI@DuiLib@@QAEAAV01@ABV01@@Z @364
    ??4CListBodyUI@DuiLib@@QAEAAV01@ABV01@@Z @365
    ??4CListContainerElementUI@DuiLib@@QAEAAV01@$$QAV01@@Z @366
    ??4CListContainerElementUI@DuiLib@@QAEAAV01@ABV01@@Z @367
    ??4CListElementUI@DuiLib@@QAEAAV01@$$QAV01@@Z @368
    ??4CListElementUI@DuiLib@@QAEAAV01@ABV01@@Z @369
    ??4CListHeaderItemUI@DuiLib@@QAEAAV01@$$QAV01@@Z @370
    ??4CListHeaderItemUI@DuiLib@@QAEAAV01@ABV01@@Z @371
    ??4CListHeaderUI@DuiLib@@QAEAAV01@$$QAV01@@Z @372
    ??4CListHeaderUI@DuiLib@@QAEAAV01@ABV01@@Z @373
    ??4CListLabelElementUI@DuiLib@@QAEAAV01@$$QAV01@@Z @374
    ??4CListLabelElementUI@DuiLib@@QAEAAV01@ABV01@@Z @375
    ??4CListTextElementUI@DuiLib@@QAEAAV01@ABV01@@Z @376
    ??4CListUI@DuiLib@@QAEAAV01@$$QAV01@@Z @377
    ??4CListUI@DuiLib@@QAEAAV01@ABV01@@Z @378
    ??4CMarkup@DuiLib@@QAEAAV01@ABV01@@Z @379
    ??4CMarkupNode@DuiLib@@QAEAAV01@$$QAV01@@Z @380
    ??4CMarkupNode@DuiLib@@QAEAAV01@ABV01@@Z @381
    ??4CMenuElementUI@DuiLib@@QAEAAV01@ABV01@@Z @382
    ??4CMenuUI@DuiLib@@QAEAAV01@ABV01@@Z @383
    ??4CMenuWnd@DuiLib@@QAEAAV01@ABV01@@Z @384
    ??4CNotifyPump@DuiLib@@QAEAAV01@ABV01@@Z @385
    ??4COptionAccessibility@DuiLib@@QAEAAV01@$$QAV01@@Z @386
    ??4COptionAccessibility@DuiLib@@QAEAAV01@ABV01@@Z @387
    ??4COptionUI@DuiLib@@QAEAAV01@ABV01@@Z @388
    ??4CPaintManagerUI@DuiLib@@QAEAAV01@ABV01@@Z @389
    ??4CPoint@DuiLib@@QAEAAV01@$$QAV01@@Z @390
    ??4CPoint@DuiLib@@QAEAAV01@ABV01@@Z @391
    ??4CProgressUI@DuiLib@@QAEAAV01@$$QAV01@@Z @392
    ??4CProgressUI@DuiLib@@QAEAAV01@ABV01@@Z @393
    ??4CRenderClip@DuiLib@@QAEAAV01@ABV01@@Z @394
    ??4CRenderEngine@DuiLib@@QAEAAV01@$$QAV01@@Z @395
    ??4CRenderEngine@DuiLib@@QAEAAV01@ABV01@@Z @396
    ??4CResManager@DuiLib@@QAEAAV01@$$QAV01@@Z @397
    ??4CResManager@DuiLib@@QAEAAV01@ABV01@@Z @398
    ??4CRichEditCustomerUI@DuiLib@@QAEAAV01@ABV01@@Z @399
    ??4CRichEditUI@DuiLib@@QAEAAV01@ABV01@@Z @400
    ??4CScrollBarUI@DuiLib@@QAEAAV01@$$QAV01@@Z @401
    ??4CScrollBarUI@DuiLib@@QAEAAV01@ABV01@@Z @402
    ??4CShadowUI@DuiLib@@QAEAAV01@ABV01@@Z @403
    ??4CSize@DuiLib@@QAEAAV01@$$QAV01@@Z @404
    ??4CSize@DuiLib@@QAEAAV01@ABV01@@Z @405
    ??4CSliderUI@DuiLib@@QAEAAV01@$$QAV01@@Z @406
    ??4CSliderUI@DuiLib@@QAEAAV01@ABV01@@Z @407
    ??4CSplitterUI@DuiLib@@QAEAAV01@ABV01@@Z @408
    ??4CStdIntArray@DuiLib@@QAEAAV01@ABV01@@Z @409
    ??4CStdPtrArray@DuiLib@@QAEAAV01@ABV01@@Z @410
    ??4CStdStringPtrMap@DuiLib@@QAEAAV01@ABV01@@Z @411
    ??4CStdValArray@DuiLib@@QAEAAV01@ABV01@@Z @412
    ??4CTabLayoutUI@DuiLib@@QAEAAV01@$$QAV01@@Z @413
    ??4CTabLayoutUI@DuiLib@@QAEAAV01@ABV01@@Z @414
    ??4CTextUI@DuiLib@@QAEAAV01@ABV01@@Z @415
    ??4CTileLayoutUI@DuiLib@@QAEAAV01@$$QAV01@@Z @416
    ??4CTileLayoutUI@DuiLib@@QAEAAV01@ABV01@@Z @417
    ??4CTouchUtils@DuiLib@@QAEAAV01@ABV01@@Z @418
    ??4CTreeNodeUI@DuiLib@@QAEAAV01@ABV01@@Z @419
    ??4CTreeViewUI@DuiLib@@QAEAAV01@ABV01@@Z @420
    ??4CVerticalLayoutUI@DuiLib@@QAEAAV01@$$QAV01@@Z @421
    ??4CVerticalLayoutUI@DuiLib@@QAEAAV01@ABV01@@Z @422
    ??4CWaitCursor@DuiLib@@QAEAAV01@ABV01@@Z @423
    ??4CWebBrowserUI@DuiLib@@QAEAAV01@ABV01@@Z @424
    ??4CWindowAccessibility@DuiLib@@QAEAAV01@$$QAV01@@Z @425
    ??4CWindowAccessibility@DuiLib@@QAEAAV01@ABV01@@Z @426
    ??4CWindowWnd@DuiLib@@QAEAAV01@ABV01@@Z @427
    ??4ChatViewImageFilter@DuiLib@@QAEAAV01@ABV01@@Z @428
    ??4Emoji@DuiLib@@QAEAAV01@$$QAV01@@Z @429
    ??4Emoji@DuiLib@@QAEAAV01@ABV01@@Z @430
    ??4EmotionCacheInfo@DuiLib@@QAEAAU01@$$QAU01@@Z @431
    ??4EmotionCacheInfo@DuiLib@@QAEAAU01@ABU01@@Z @432
    ??4EmotionList@DuiLib@@QAEAAV01@ABV01@@Z @433
    ??4EmotionManager@DuiLib@@QAEAAV01@$$QAV01@@Z @434
    ??4EmotionManager@DuiLib@@QAEAAV01@ABV01@@Z @435
    ??4EstimateContraint@DuiLib@@QAEAAV01@$$QAV01@@Z @436
    ??4EstimateContraint@DuiLib@@QAEAAV01@ABV01@@Z @437
    ??4HookManager@DuiLib@@QAEAAV01@$$QAV01@@Z @438
    ??4HookManager@DuiLib@@QAEAAV01@ABV01@@Z @439
    ??4HotKeyManager@DuiLib@@QAEAAV01@ABV01@@Z @440
    ??4IImageFilter@DuiLib@@QAEAAV01@ABV01@@Z @441
    ??4IResLoader@DuiLib@@QAEAAV01@ABV01@@Z @442
    ??4IResLoaderManager@DuiLib@@QAEAAV01@ABV01@@Z @443
    ??4IRichEditCustomCallback@DuiLib@@QAEAAV01@$$QAV01@@Z @444
    ??4IRichEditCustomCallback@DuiLib@@QAEAAV01@ABV01@@Z @445
    ??4IRichEditEventListener@DuiLib@@QAEAAV01@$$QAV01@@Z @446
    ??4IRichEditEventListener@DuiLib@@QAEAAV01@ABV01@@Z @447
    ??4IRichEditHost@DuiLib@@QAEAAV01@$$QAV01@@Z @448
    ??4IRichEditHost@DuiLib@@QAEAAV01@ABV01@@Z @449
    ??4IRichEditRender@DuiLib@@QAEAAV01@$$QAV01@@Z @450
    ??4IRichEditRender@DuiLib@@QAEAAV01@ABV01@@Z @451
    ??4IStringLoader@DuiLib@@QAEAAV01@ABV01@@Z @452
    ??4IWindowManager@DuiLib@@QAEAAV01@$$QAV01@@Z @453
    ??4IWindowManager@DuiLib@@QAEAAV01@ABV01@@Z @454
    ??4IWindowUnderControl@DuiLib@@QAEAAV01@$$QAV01@@Z @455
    ??4IWindowUnderControl@DuiLib@@QAEAAV01@ABV01@@Z @456
    ??4MonitorAdapter@DuiLib@@QAEAAV01@ABV01@@Z @457
    ??4ObserverImpl@DuiLib@@QAEAAV01@ABV01@@Z @458
    ??4ReceiverImpl@DuiLib@@QAEAAV01@ABV01@@Z @459
    ??4STRINGorID@DuiLib@@QAEAAV01@$$QAV01@@Z @460
    ??4STRINGorID@DuiLib@@QAEAAV01@ABV01@@Z @461
    ??4TResData@DuiLib@@QAEAAV01@ABV01@@Z @462
    ??4WindowImplBase@DuiLib@@QAEAAV01@ABV01@@Z @463
    ??4tagTFontInfo@DuiLib@@QAEAAU01@$$QAU01@@Z @464
    ??4tagTFontInfo@DuiLib@@QAEAAU01@ABU01@@Z @465
    ??8CDuiString@DuiLib@@QBE_NPB_W@Z @466
    ??9CDuiString@DuiLib@@QBE_NPB_W@Z @467
    ??ACDuiString@DuiLib@@QBE_WH@Z @468
    ??ACStdIntArray@DuiLib@@QBEHH@Z @469
    ??ACStdPtrArray@DuiLib@@QBEPAXH@Z @470
    ??ACStdStringPtrMap@DuiLib@@QBEPB_WH@Z @471
    ??ACStdValArray@DuiLib@@QBEPAXH@Z @472
    ??B?$shared_ptr@VImage@Gdiplus@@@std@@QBE_NXZ @473
    ??BCDuiString@DuiLib@@QBEPB_WXZ @474
    ??BCEventSource@DuiLib@@QBE_NXZ @475
    ??BCWindowWnd@DuiLib@@QBEPAUHWND__@@XZ @476
    ??C?$shared_ptr@VImage@Gdiplus@@@std@@QBEPAVImage@Gdiplus@@XZ @477
    ??D?$shared_ptr@VImage@Gdiplus@@@std@@QBEAAVImage@Gdiplus@@XZ @478
    ??HCDuiString@DuiLib@@QBE?AV01@ABV01@@Z @479
    ??HCDuiString@DuiLib@@QBE?AV01@PB_W@Z @480
    ??MCDuiString@DuiLib@@QBE_NPB_W@Z @481
    ??NCDuiString@DuiLib@@QBE_NPB_W@Z @482
    ??OCDuiString@DuiLib@@QBE_NPB_W@Z @483
    ??PCDuiString@DuiLib@@QBE_NPB_W@Z @484
    ??RCDelegateBase@DuiLib@@QAE_NPAX@Z @485
    ??RCEventSource@DuiLib@@QAE_NPAX@Z @486
    ??YCDuiString@DuiLib@@QAEABV01@ABV01@@Z @487
    ??YCDuiString@DuiLib@@QAEABV01@PBD@Z @488
    ??YCDuiString@DuiLib@@QAEABV01@PB_W@Z @489
    ??YCDuiString@DuiLib@@QAEABV01@_W@Z @490
    ??YCEventSource@DuiLib@@QAEXABVCDelegateBase@1@@Z @491
    ??YCEventSource@DuiLib@@QAEXP6A_NPAX@Z@Z @492
    ??ZCEventSource@DuiLib@@QAEXABVCDelegateBase@1@@Z @493
    ??ZCEventSource@DuiLib@@QAEXP6A_NPAX@Z@Z @494
    ??_7CActiveXUI@DuiLib@@6BCControlUI@1@@ @495
    ??_7CActiveXUI@DuiLib@@6BIMessageFilterUI@1@@ @496
    ??_7CButtonLayoutUI@DuiLib@@6B@ @497
    ??_7CButtonLayoutUI@DuiLib@@6BCControlUI@1@@ @498
    ??_7CButtonLayoutUI@DuiLib@@6BIContainerUI@1@@ @499
    ??_7CButtonLayoutUI@DuiLib@@6BIMessageFilterUI@1@@ @500
    ??_7CButtonUI@DuiLib@@6B@ @501
    ??_7CCheckBoxUI@DuiLib@@6B@ @502
    ??_7CChildLayoutUI@DuiLib@@6BCControlUI@1@@ @503
    ??_7CChildLayoutUI@DuiLib@@6BIContainerUI@1@@ @504
    ??_7CChildLayoutUI@DuiLib@@6BIMessageFilterUI@1@@ @505
    ??_7CComboBoxUI@DuiLib@@6B@ @506
    ??_7CComboBoxUI@DuiLib@@6BCControlUI@1@@ @507
    ??_7CComboBoxUI@DuiLib@@6BIContainerUI@1@@ @508
    ??_7CComboBoxUI@DuiLib@@6BIMessageFilterUI@1@@ @509
    ??_7CComboUI@DuiLib@@6B@ @510
    ??_7CComboUI@DuiLib@@6BCControlUI@1@@ @511
    ??_7CComboUI@DuiLib@@6BIContainerUI@1@@ @512
    ??_7CComboUI@DuiLib@@6BIMessageFilterUI@1@@ @513
    ??_7CContainerAccessibility@DuiLib@@6B@ @514
    ??_7CContainerUI@DuiLib@@6BCControlUI@1@@ @515
    ??_7CContainerUI@DuiLib@@6BIContainerUI@1@@ @516
    ??_7CContainerUI@DuiLib@@6BIMessageFilterUI@1@@ @517
    ??_7CControlAccessiblity@DuiLib@@6B@ @518
    ??_7CControlUI@DuiLib@@6B@ @519
    ??_7CDateTimeUI@DuiLib@@6B@ @520
    ??_7CDefaultAccessibility@DuiLib@@6B@ @521
    ??_7CDelegateBase@DuiLib@@6B@ @522
    ??_7CEditUI@DuiLib@@6B@ @523
    ??_7CFlexLayoutUI@DuiLib@@6B@ @524
    ??_7CFlexLayoutUI@DuiLib@@6BCControlUI@1@@ @525
    ??_7CFlexLayoutUI@DuiLib@@6BIContainerUI@1@@ @526
    ??_7CFlexLayoutUI@DuiLib@@6BIMessageFilterUI@1@@ @527
    ??_7CFlowLayoutUI@DuiLib@@6B@ @528
    ??_7CFlowLayoutUI@DuiLib@@6BCControlUI@1@@ @529
    ??_7CFlowLayoutUI@DuiLib@@6BIContainerUI@1@@ @530
    ??_7CFlowLayoutUI@DuiLib@@6BIMessageFilterUI@1@@ @531
    ??_7CGifAnimUI@DuiLib@@6B@ @532
    ??_7CHeaderControlListener@DuiLib@@6B@ @533
    ??_7CHeaderControlUI@DuiLib@@6B@ @534
    ??_7CHeaderControlUI@DuiLib@@6BCControlUI@1@@ @535
    ??_7CHeaderControlUI@DuiLib@@6BIContainerUI@1@@ @536
    ??_7CHeaderControlUI@DuiLib@@6BIMessageFilterUI@1@@ @537
    ??_7CHorizontalLayoutUI@DuiLib@@6B@ @538
    ??_7CHorizontalLayoutUI@DuiLib@@6BCControlUI@1@@ @539
    ??_7CHorizontalLayoutUI@DuiLib@@6BIContainerUI@1@@ @540
    ??_7CHorizontalLayoutUI@DuiLib@@6BIMessageFilterUI@1@@ @541
    ??_7CLabelUI@DuiLib@@6B@ @542
    ??_7CListBodyUI@DuiLib@@6B@ @543
    ??_7CListBodyUI@DuiLib@@6BCControlUI@1@@ @544
    ??_7CListBodyUI@DuiLib@@6BIContainerUI@1@@ @545
    ??_7CListBodyUI@DuiLib@@6BIMessageFilterUI@1@@ @546
    ??_7CListContainerElementUI@DuiLib@@6B@ @547
    ??_7CListContainerElementUI@DuiLib@@6BCControlUI@1@@ @548
    ??_7CListContainerElementUI@DuiLib@@6BIContainerUI@1@@ @549
    ??_7CListContainerElementUI@DuiLib@@6BIMessageFilterUI@1@@ @550
    ??_7CListElementUI@DuiLib@@6BCControlUI@1@@ @551
    ??_7CListElementUI@DuiLib@@6BIListItemUI@1@@ @552
    ??_7CListHeaderItemUI@DuiLib@@6B@ @553
    ??_7CListHeaderUI@DuiLib@@6B@ @554
    ??_7CListHeaderUI@DuiLib@@6BCControlUI@1@@ @555
    ??_7CListHeaderUI@DuiLib@@6BIContainerUI@1@@ @556
    ??_7CListHeaderUI@DuiLib@@6BIMessageFilterUI@1@@ @557
    ??_7CListLabelElementUI@DuiLib@@6BCControlUI@1@@ @558
    ??_7CListLabelElementUI@DuiLib@@6BIListItemUI@1@@ @559
    ??_7CListTextElementUI@DuiLib@@6BCControlUI@1@@ @560
    ??_7CListTextElementUI@DuiLib@@6BIListItemUI@1@@ @561
    ??_7CListUI@DuiLib@@6BCControlUI@1@@ @562
    ??_7CListUI@DuiLib@@6BCVerticalLayoutUI@1@@ @563
    ??_7CListUI@DuiLib@@6BIContainerUI@1@@ @564
    ??_7CListUI@DuiLib@@6BIListUI@1@@ @565
    ??_7CListUI@DuiLib@@6BIMessageFilterUI@1@@ @566
    ??_7CMenuElementUI@DuiLib@@6B@ @567
    ??_7CMenuElementUI@DuiLib@@6BCControlUI@1@@ @568
    ??_7CMenuElementUI@DuiLib@@6BIContainerUI@1@@ @569
    ??_7CMenuElementUI@DuiLib@@6BIMessageFilterUI@1@@ @570
    ??_7CMenuUI@DuiLib@@6BCControlUI@1@@ @571
    ??_7CMenuUI@DuiLib@@6BCVerticalLayoutUI@1@@ @572
    ??_7CMenuUI@DuiLib@@6BIContainerUI@1@@ @573
    ??_7CMenuUI@DuiLib@@6BIListUI@1@@ @574
    ??_7CMenuUI@DuiLib@@6BIMessageFilterUI@1@@ @575
    ??_7CMenuWnd@DuiLib@@6BCWindowWnd@1@@ @576
    ??_7CMenuWnd@DuiLib@@6BIDialogBuilderCallback@1@@ @577
    ??_7CMenuWnd@DuiLib@@6BINotifyUI@1@@ @578
    ??_7CMenuWnd@DuiLib@@6BReceiverImpl@1@@ @579
    ??_7CNotifyPump@DuiLib@@6B@ @580
    ??_7COptionAccessibility@DuiLib@@6B@ @581
    ??_7COptionUI@DuiLib@@6B@ @582
    ??_7CPaintManagerUI@DuiLib@@6BIDuiDropTarget@1@@ @583
    ??_7CPaintManagerUI@DuiLib@@6BIWindowManager@1@@ @584
    ??_7CProgressUI@DuiLib@@6B@ @585
    ??_7CRichEditCustomerUI@DuiLib@@6BCControlUI@1@@ @586
    ??_7CRichEditCustomerUI@DuiLib@@6BIContainerUI@1@@ @587
    ??_7CRichEditCustomerUI@DuiLib@@6BIMessageFilterUI@1@@ @588
    ??_7CRichEditUI@DuiLib@@6BCControlUI@1@@ @589
    ??_7CRichEditUI@DuiLib@@6BIContainerUI@1@@ @590
    ??_7CRichEditUI@DuiLib@@6BIMessageFilterUI@1@@ @591
    ??_7CScrollBarUI@DuiLib@@6B@ @592
    ??_7CShadowUI@DuiLib@@6B@ @593
    ??_7CSliderUI@DuiLib@@6B@ @594
    ??_7CSplitterUI@DuiLib@@6B@ @595
    ??_7CTabLayoutUI@DuiLib@@6BCControlUI@1@@ @596
    ??_7CTabLayoutUI@DuiLib@@6BIContainerUI@1@@ @597
    ??_7CTabLayoutUI@DuiLib@@6BIMessageFilterUI@1@@ @598
    ??_7CTextUI@DuiLib@@6B@ @599
    ??_7CTileLayoutUI@DuiLib@@6BCControlUI@1@@ @600
    ??_7CTileLayoutUI@DuiLib@@6BIContainerUI@1@@ @601
    ??_7CTileLayoutUI@DuiLib@@6BIMessageFilterUI@1@@ @602
    ??_7CTreeNodeUI@DuiLib@@6B@ @603
    ??_7CTreeNodeUI@DuiLib@@6BCControlUI@1@@ @604
    ??_7CTreeNodeUI@DuiLib@@6BIContainerUI@1@@ @605
    ??_7CTreeNodeUI@DuiLib@@6BIMessageFilterUI@1@@ @606
    ??_7CTreeViewUI@DuiLib@@6B@ @607
    ??_7CTreeViewUI@DuiLib@@6BCControlUI@1@@ @608
    ??_7CTreeViewUI@DuiLib@@6BCVerticalLayoutUI@1@@ @609
    ??_7CTreeViewUI@DuiLib@@6BIContainerUI@1@@ @610
    ??_7CTreeViewUI@DuiLib@@6BIListUI@1@@ @611
    ??_7CTreeViewUI@DuiLib@@6BIMessageFilterUI@1@@ @612
    ??_7CVerticalLayoutUI@DuiLib@@6B@ @613
    ??_7CVerticalLayoutUI@DuiLib@@6BCControlUI@1@@ @614
    ??_7CVerticalLayoutUI@DuiLib@@6BIContainerUI@1@@ @615
    ??_7CVerticalLayoutUI@DuiLib@@6BIMessageFilterUI@1@@ @616
    ??_7CWebBrowserUI@DuiLib@@6BCControlUI@1@@ @617
    ??_7CWebBrowserUI@DuiLib@@6BIDispatch@@@ @618
    ??_7CWebBrowserUI@DuiLib@@6BIDocHostUIHandler@@@ @619
    ??_7CWebBrowserUI@DuiLib@@6BIMessageFilterUI@1@@ @620
    ??_7CWebBrowserUI@DuiLib@@6BIOleCommandTarget@@@ @621
    ??_7CWebBrowserUI@DuiLib@@6BIServiceProvider@@@ @622
    ??_7CWebBrowserUI@DuiLib@@6BITranslateAccelerator@1@@ @623
    ??_7CWindowAccessibility@DuiLib@@6B@ @624
    ??_7CWindowWnd@DuiLib@@6B@ @625
    ??_7ChatViewImageFilter@DuiLib@@6B@ @626
    ??_7EmotionList@DuiLib@@6B@ @627
    ??_7HookManager@DuiLib@@6B@ @628
    ??_7HotKeyManager@DuiLib@@6B@ @629
    ??_7IImageFilter@DuiLib@@6B@ @630
    ??_7IResLoader@DuiLib@@6B@ @631
    ??_7IResLoaderManager@DuiLib@@6B@ @632
    ??_7IRichEditCustomCallback@DuiLib@@6B@ @633
    ??_7IRichEditEventListener@DuiLib@@6B@ @634
    ??_7IRichEditHost@DuiLib@@6B@ @635
    ??_7IRichEditRender@DuiLib@@6B@ @636
    ??_7IStringLoader@DuiLib@@6B@ @637
    ??_7IWindowManager@DuiLib@@6B@ @638
    ??_7IWindowUnderControl@DuiLib@@6B@ @639
    ??_7ObserverImpl@DuiLib@@6B@ @640
    ??_7ReceiverImpl@DuiLib@@6B@ @641
    ??_7TResData@DuiLib@@6B@ @642
    ??_7WindowImplBase@DuiLib@@6BCNotifyPump@1@@ @643
    ??_7WindowImplBase@DuiLib@@6BCWindowWnd@1@@ @644
    ??_7WindowImplBase@DuiLib@@6BDragTargetDelegate@1@@ @645
    ??_7WindowImplBase@DuiLib@@6BIDialogBuilderCallback@1@@ @646
    ??_7WindowImplBase@DuiLib@@6BIMessageFilterUI@1@@ @647
    ??_7WindowImplBase@DuiLib@@6BINotifyUI@1@@ @648
    ??_FCMarkup@DuiLib@@QAEXXZ @649
    ??_FCStdIntArray@DuiLib@@QAEXXZ @650
    ??_FCStdPtrArray@DuiLib@@QAEXXZ @651
    ??_FCStdStringPtrMap@DuiLib@@QAEXXZ @652
    ??_FCTreeNodeUI@DuiLib@@QAEXXZ @653
    ?Activate@CButtonLayoutUI@DuiLib@@UAE_NXZ @654
    ?Activate@CButtonUI@DuiLib@@UAE_NXZ @655
    ?Activate@CComboUI@DuiLib@@UAE_NXZ @656
    ?Activate@CControlUI@DuiLib@@UAE_NXZ @657
    ?Activate@CListContainerElementUI@DuiLib@@UAE_NXZ @658
    ?Activate@CListElementUI@DuiLib@@UAE_NXZ @659
    ?Activate@COptionUI@DuiLib@@UAE_NXZ @660
    ?Add@CComboUI@DuiLib@@UAE_NPAVCControlUI@2@@Z @661
    ?Add@CContainerUI@DuiLib@@UAE_NPAVCControlUI@2@@Z @662
    ?Add@CFlexLayoutUI@DuiLib@@UAE_NPAVCControlUI@2@@Z @663
    ?Add@CListUI@DuiLib@@UAE_NPAVCControlUI@2@@Z @664
    ?Add@CMenuUI@DuiLib@@UAE_NPAVCControlUI@2@@Z @665
    ?Add@CStdIntArray@DuiLib@@QAE_NH@Z @666
    ?Add@CStdPtrArray@DuiLib@@QAE_NPAX@Z @667
    ?Add@CStdValArray@DuiLib@@QAE_NPBX@Z @668
    ?Add@CTabLayoutUI@DuiLib@@UAE_NPAVCControlUI@2@@Z @669
    ?Add@CTreeNodeUI@DuiLib@@UAE_NPAVCControlUI@2@@Z @670
    ?Add@CTreeViewUI@DuiLib@@UAE_NPAVCTreeNodeUI@2@@Z @671
    ?AddArray@CStdPtrArray@DuiLib@@QAEXABV12@@Z @672
    ?AddAt@CComboUI@DuiLib@@UAE_NPAVCControlUI@2@H@Z @673
    ?AddAt@CContainerUI@DuiLib@@UAE_NPAVCControlUI@2@H@Z @674
    ?AddAt@CFlexLayoutUI@DuiLib@@UAE_NPAVCControlUI@2@H@Z @675
    ?AddAt@CListUI@DuiLib@@UAE_NPAVCControlUI@2@H@Z @676
    ?AddAt@CMenuUI@DuiLib@@UAE_NPAVCControlUI@2@H@Z @677
    ?AddAt@CTabLayoutUI@DuiLib@@UAE_NPAVCControlUI@2@H@Z @678
    ?AddAt@CTreeNodeUI@DuiLib@@UAE_NPAVCControlUI@2@H@Z @679
    ?AddAt@CTreeViewUI@DuiLib@@UAEJPAVCTreeNodeUI@2@H@Z @680
    ?AddAt@CTreeViewUI@DuiLib@@UAE_NPAVCTreeNodeUI@2@0@Z @681
    ?AddChildNode@CTreeNodeUI@DuiLib@@QAE_NPAV12@@Z @682
    ?AddColumn@CHeaderControlUI@DuiLib@@QAEHPAVCControlUI@2@@Z @683
    ?AddDefaultAttributeList@CPaintManagerUI@DuiLib@@QAEXPB_W0@Z @684
    ?AddDelayedCleanup@CPaintManagerUI@DuiLib@@QAEXPAVCControlUI@2@@Z @685
    ?AddFont@CPaintManagerUI@DuiLib@@QAEPAUHFONT__@@PB_WH_N110@Z @686
    ?AddLineToLines@CFlexLayoutUI@DuiLib@@AAEXAAV?$vector@V?$vector@U?$pair@PAVCControlUI@DuiLib@@UtagRECT@@@std@@V?$allocator@U?$pair@PAVCControlUI@DuiLib@@UtagRECT@@@std@@@2@@std@@V?$allocator@V?$vector@U?$pair@PAVCControlUI@DuiLib@@UtagRECT@@@std@@V?$allocator@U?$pair@PAVCControlUI@DuiLib@@UtagRECT@@@std@@@2@@std@@@2@@std@@ABV?$vector@U?$pair@PAVCControlUI@DuiLib@@UtagRECT@@@std@@V?$allocator@U?$pair@PAVCControlUI@DuiLib@@UtagRECT@@@std@@@2@@4@@Z @687
    ?AddMessageFilter@CHeaderControlUI@DuiLib@@AAEXXZ @688
    ?AddMessageFilter@CPaintManagerUI@DuiLib@@QAE_NPAVIMessageFilterUI@2@@Z @689
    ?AddNotifier@CPaintManagerUI@DuiLib@@QAE_NPAVINotifyUI@2@@Z @690
    ?AddObserver@ReceiverImpl@DuiLib@@UAEXPAVObserverImplBase@2@@Z @691
    ?AddOnlyAcceptedKey@CRichEditUI@DuiLib@@QAEXABV?$vector@IV?$allocator@I@std@@@std@@@Z @692
    ?AddOnlyAcceptedKey@CRichEditUI@DuiLib@@QAEXI@Z @693
    ?AddOptionGroup@CPaintManagerUI@DuiLib@@QAE_NPB_WPAVCControlUI@2@@Z @694
    ?AddPointer@CPaintManagerUI@DuiLib@@QAE_NK@Z @695
    ?AddPostPaint@CPaintManagerUI@DuiLib@@QAE_NPAVCControlUI@2@@Z @696
    ?AddPreMessageFilter@CPaintManagerUI@DuiLib@@QAE_NPAVIMessageFilterUI@2@@Z @697
    ?AddReceiver@ObserverImpl@DuiLib@@UAEXPAVReceiverImplBase@2@@Z @698
    ?AddRef@CDefaultAccessibility@DuiLib@@UAGKXZ @699
    ?AddRef@CWebBrowserUI@DuiLib@@UAGKXZ @700
    ?AddSplitter@CPaintManagerUI@DuiLib@@AAEXPAVCSplitterUI@2@@Z @701
    ?AddSubMenuItem@CMenuElementUI@DuiLib@@QAEXPAV12@@Z @702
    ?AddSysCommandMessageFilter@CPaintManagerUI@DuiLib@@QAE_NPAVIMessageFilterUI@2@@Z @703
    ?AddTranslateAccelerator@CPaintManagerUI@DuiLib@@QAE_NPAVITranslateAccelerator@2@@Z @704
    ?AddUnacceptedKey@CRichEditUI@DuiLib@@QAEXI@Z @705
    ?AddVirtualWnd@CNotifyPump@DuiLib@@QAE_NVCDuiString@2@PAV12@@Z @706
    ?AdjustColor@CRenderEngine@DuiLib@@SAKKFFF@Z @707
    ?AdjustCornerPos@CContainerUI@DuiLib@@IAEXXZ @708
    ?AdjustImmCompositionWindow@CPaintManagerUI@DuiLib@@AAEX_N@Z @709
    ?AdjustLeftRightControls@CSplitterUI@DuiLib@@AAEXPAVCControlUI@2@0H@Z @710
    ?AdjustLeftRightSiblings@CSplitterUI@DuiLib@@AAEXABUtagPOINT@@@Z @711
    ?AdjustShadowPos@CContainerUI@DuiLib@@IAEXXZ @712
    ?AdjustSiblings@CSplitterUI@DuiLib@@AAEXABUtagPOINT@@@Z @713
    ?AdjustSizeByMinMaxSize@CControlUI@DuiLib@@IAEXAAUtagSIZE@@@Z @714
    ?AdjustSplitterSize@CSplitterUI@DuiLib@@AAEXXZ @715
    ?AdjustUpDownControls@CSplitterUI@DuiLib@@AAEXPAVCControlUI@2@0H@Z @716
    ?AdjustUpDownSiblings@CSplitterUI@DuiLib@@AAEXABUtagPOINT@@@Z @717
    ?AfterHandleMessage@CWindowWnd@DuiLib@@MAEXXZ @718
    ?AlphaBlend@DuiApi@@YAHPAUHDC__@@HHHH0HHHHU_BLENDFUNCTION@@@Z @719
    ?AlphaBlendWithHighDpiImage@DuiApi@@YAHPAUHDC__@@HHHH0HHHHU_BLENDFUNCTION@@@Z @720
    ?Append@CDuiString@DuiLib@@QAEXPB_W@Z @721
    ?AppendText@CRichEditUI@DuiLib@@QAEHPB_W_N@Z @722
    ?ApplyAttributeList@CControlUI@DuiLib@@QAEPAV12@PB_W@Z @723
    ?ApplyStyle@CControlUI@DuiLib@@QAEXABVCDuiString@2@@Z @724
    ?Assign@CDuiString@DuiLib@@QAEXPB_WH@Z @725
    ?Assign@CStdIntArray@DuiLib@@QAEXABV12@@Z @726
    ?Assign@CStdPtrArray@DuiLib@@QAEXABV12@@Z @727
    ?AttachDialog@CPaintManagerUI@DuiLib@@QAE_NPAVCControlUI@2@@Z @728
    ?BeforeHandleMessage@CWindowWnd@DuiLib@@MAE_NXZ @729
    ?BeforeNavigate2@CWebBrowserUI@DuiLib@@IAEXPAUIDispatch@@AAPAUtagVARIANT@@1111AAPAF@Z @730
    ?BeforeSendMessage@CRichEditUI@DuiLib@@UAEJIIJPAJ@Z @731
    ?BeginPaint@DuiApi@@YAPAUHDC__@@PAUHWND__@@PAUtagPAINTSTRUCT@@@Z @732
    ?BitBlt@DuiApi@@YAHPAUHDC__@@HHHH0HHK@Z @733
    ?BringToTop@CWindowWnd@DuiLib@@QAEXXZ @734
    ?BuildEmojiRecordsFromFile@EmotionList@DuiLib@@AAEXPB_WAAV?$vector@V?$shared_ptr@UEmojiRecord@@@std@@V?$allocator@V?$shared_ptr@UEmojiRecord@@@std@@@2@@std@@@Z @735
    ?BuildEmotionRecordFromFile@EmotionList@DuiLib@@AAEXPB_WAAV?$vector@V?$shared_ptr@UEmotionRecord@@@std@@V?$allocator@V?$shared_ptr@UEmotionRecord@@@std@@@2@@std@@@Z @736
    ?CaculateTextDrawSize@CLabelUI@DuiLib@@IBE?AUtagSIZE@@XZ @737
    ?CalLocation@CTreeNodeUI@DuiLib@@AAEPAV12@PAV12@@Z @738
    ?CalcChildrenRectColumn@CFlexLayoutUI@DuiLib@@AAEXAAVCStdPtrArray@2@ABUtagRECT@@AAUtagSIZE@@ABV?$function@$$A6AXPAVCControlUI@DuiLib@@UtagRECT@@@Z@std@@@Z @739
    ?CalcChildrenRectRow@CFlexLayoutUI@DuiLib@@AAEXAAVCStdPtrArray@2@ABUtagRECT@@AAUtagSIZE@@ABV?$function@$$A6AXPAVCControlUI@DuiLib@@UtagRECT@@@Z@std@@@Z @740
    ?CalcMenuSize@CMenuWnd@DuiLib@@MAEXAAUtagPOINT@@AAUtagSIZE@@@Z @741
    ?CalcSpaceForItem@CFlexLayoutUI@DuiLib@@AAEMABV?$vector@U?$pair@PAVCControlUI@DuiLib@@UtagRECT@@@std@@V?$allocator@U?$pair@PAVCControlUI@DuiLib@@UtagRECT@@@std@@@2@@std@@HMM@Z @742
    ?CalcSpaceForLine@CFlexLayoutUI@DuiLib@@AAEMABUtagRECT@@@Z @743
    ?CalculateItemSizeColumn@CFlexLayoutUI@DuiLib@@AAEXHHABUtagRECT@@HAAU3@PAVCControlUI@2@MM@Z @744
    ?CalculateItemSizeRow@CFlexLayoutUI@DuiLib@@AAEXHHABUtagRECT@@HAAU3@PAVCControlUI@2@MM@Z @745
    ?CalculateItemTotalHeightWithoutScale@CFlexLayoutUI@DuiLib@@AAEHABV?$vector@U?$pair@PAVCControlUI@DuiLib@@UtagRECT@@@std@@V?$allocator@U?$pair@PAVCControlUI@DuiLib@@UtagRECT@@@std@@@2@@std@@@Z @746
    ?CalculateItemTotalWidthWithoutScale@CFlexLayoutUI@DuiLib@@AAEHABV?$vector@U?$pair@PAVCControlUI@DuiLib@@UtagRECT@@@std@@V?$allocator@U?$pair@PAVCControlUI@DuiLib@@UtagRECT@@@std@@@2@@std@@@Z @747
    ?CalculateItemXWithAlignSelf@CFlexLayoutUI@DuiLib@@AAEHABUtagRECT@@HAAU3@PAVCControlUI@2@AA_N@Z @748
    ?CalculateItemYWithAlignSelf@CFlexLayoutUI@DuiLib@@AAEHABUtagRECT@@HAAU3@PAVCControlUI@2@AA_N@Z @749
    ?CalculateLineCordinateX@CFlexLayoutUI@DuiLib@@AAEHABUtagRECT@@H@Z @750
    ?CalculateLineCordinateY@CFlexLayoutUI@DuiLib@@AAEHABUtagRECT@@H@Z @751
    ?CalculateLineHeightForAlignContentStretch@CFlexLayoutUI@DuiLib@@AAEHHABUtagRECT@@@Z @752
    ?CalculateLineWidthForAlignContentStretch@CFlexLayoutUI@DuiLib@@AAEHHABUtagRECT@@@Z @753
    ?CalculateLinesStartCordinateX@CFlexLayoutUI@DuiLib@@AAEHABUtagRECT@@@Z @754
    ?CalculateLinesStartCordinateY@CFlexLayoutUI@DuiLib@@AAEHABUtagRECT@@@Z @755
    ?CalculateSubMenupositon@CMenuWnd@DuiLib@@QAEHUtagRECT@@PAVCMenuElementUI@2@@Z @756
    ?CanFocused@CControlUI@DuiLib@@UBE_NXZ @757
    ?CanInputChar@CEditUI@DuiLib@@QAE_NXZ @758
    ?CanPaste@CRichEditUI@DuiLib@@QAEHI@Z @759
    ?CancelEventClick@CPaintManagerUI@DuiLib@@QAEXXZ @760
    ?CenterShowModal@CWindowWnd@DuiLib@@QAEXXZ @761
    ?CenterShowWindow@CWindowWnd@DuiLib@@QAEXXZ @762
    ?CenterShowWindowInScreen@CWindowWnd@DuiLib@@QAEXXZ @763
    ?CenterWindow@CWindowWnd@DuiLib@@QAEXHH@Z @764
    ?ChangeLanguage@TagIDTranslator@globalization@@QAEXW4LanguageType@2@@Z @765
    ?CharFromPos@CRichEditUI@DuiLib@@QBEHVCPoint@2@@Z @766
    ?CheckBoxSelected@CTreeNodeUI@DuiLib@@QAEX_N@Z @767
    ?CheckCurrencyFormat@CRichEditUI@DuiLib@@IAEXAAVCDuiString@2@@Z @768
    ?CheckDpi@DuiApi@@YAXXZ @769
    ?CheckMaxCharLen@CEditUI@DuiLib@@QAEPA_WPA_W@Z @770
    ?CheckRemoveShowModalMap@CWindowWnd@DuiLib@@KAXPAUHWND__@@I@Z @771
    ?CheckScreenWorkRect@CMenuWnd@DuiLib@@IAEXAAUtagRECT@@@Z @772
    ?CheckShownEmotionShortcut@DuiLib@@YA?AV?$basic_string@DU?$char_traits@D@std@@V?$allocator@D@2@@std@@ABV23@@Z @773
    ?Clear@CRichEditUI@DuiLib@@QAEXXZ @774
    ?Clear@HookManager@DuiLib@@SAXXZ @775
    ?ClearAllSelectItems@CListUI@DuiLib@@QAEXXZ @776
    ?ClearCurrentSplitter@CPaintManagerUI@DuiLib@@AAEXXZ @777
    ?ClientToScreen@DuiApi@@YAHPAUHWND__@@PAUtagPOINT@@@Z @778
    ?Close@CWindowWnd@DuiLib@@UAEXI@Z @779
    ?CloseAllMenu@CMenuWnd@DuiLib@@IAEXXZ @780
    ?CloseAllWindow@CPaintManagerUI@DuiLib@@SAXXZ @781
    ?CloseComboWND@CComboUI@DuiLib@@QAEXXZ @782
    ?CloseTouchInputHandle@CTouchUtils@DuiLib@@SAHPAUHTOUCHINPUT__@2@@Z @783
    ?CommandStateChange@CWebBrowserUI@DuiLib@@IAEXJF@Z @784
    ?Compare@CDuiString@DuiLib@@QBEHPB_W@Z @785
    ?CompareNoCase@CDuiString@DuiLib@@QBEHPB_W@Z @786
    ?ConvertCurMonitorPointToVirtualScreenPoint@MonitorAdapter@DuiLib@@QAE?AUtagPOINT@@U3@@Z @787
    ?ConvertFontHeightAndLeading@DuiApi@@YAJPAUtagTEXTMETRICW@@@Z @788
    ?ConvertLParamToPoint@DuiApi@@YA?AUtagPOINT@@J@Z @789
    ?ConvertPixelToTwips@DuiLib@@YAJPAUHDC__@@J@Z @790
    ?ConvertTextToDuiEmojiText@Emoji@DuiLib@@SA?AV?$basic_string@_WU?$char_traits@_W@std@@V?$allocator@_W@2@@std@@ABV34@@Z @791
    ?ConvertTextToDuiEmojiText@Emoji@DuiLib@@SA?AV?$basic_string@_WU?$char_traits@_W@std@@V?$allocator@_W@2@@std@@ABV34@ABV?$function@$$A6A?AV?$basic_string@_WU?$char_traits@_W@std@@V?$allocator@_W@2@@std@@V?$vector@IV?$allocator@I@std@@@2@@Z@4@@Z @792
    ?ConvertToVirtualScreenPoint@MonitorAdapter@DuiLib@@AAE?AUtagPOINT@@PAUHMONITOR__@@U3@@Z @793
    ?ConvertToVirtualScreenPoint@MonitorAdapter@DuiLib@@QAE?AUtagPOINT@@PAUHWND__@@U3@@Z @794
    ?ConvertToVirtualScreenRect@MonitorAdapter@DuiLib@@QAE?AUtagRECT@@PAUHWND__@@U3@@Z @795
    ?Copy@CRichEditUI@DuiLib@@QAEXXZ @796
    ?CopyShadow@CShadowUI@DuiLib@@QAE_NPAV12@@Z @797
    ?Create@CDialogBuilder@DuiLib@@QAEPAVCControlUI@2@PAVIDialogBuilderCallback@2@PAVCPaintManagerUI@2@PAV32@@Z @798
    ?Create@CShadowUI@DuiLib@@QAEXPAVCPaintManagerUI@2@@Z @799
    ?Create@CWindowWnd@DuiLib@@QAEPAUHWND__@@PAU3@PB_WKKHHHHPAUHMENU__@@@Z @800
    ?Create@CWindowWnd@DuiLib@@QAEPAUHWND__@@PAU3@PB_WKKUtagRECT@@PAUHMENU__@@@Z @801
    ?CreateCaret@DuiApi@@YAHPAUHWND__@@PAUHBITMAP__@@HH@Z @802
    ?CreateCompatibleBitmap@DuiApi@@YAPAUHBITMAP__@@PAUHDC__@@HH@Z @803
    ?CreateControl@CActiveXUI@DuiLib@@QAE_NPB_W@Z @804
    ?CreateControl@CActiveXUI@DuiLib@@QAE_NU_GUID@@@Z @805
    ?CreateControl@CMenuWnd@DuiLib@@UAEPAVCControlUI@2@PB_W@Z @806
    ?CreateControl@WindowImplBase@DuiLib@@UAEPAVCControlUI@2@PB_W@Z @807
    ?CreateDuiWindow@CWindowWnd@DuiLib@@QAEPAUHWND__@@PAU3@PB_WKK@Z @808
    ?CreateFileResLoader@CResManager@DuiLib@@SA?AV?$shared_ptr@VIResLoader@DuiLib@@@std@@ABV?$basic_string@_WU?$char_traits@_W@std@@V?$allocator@_W@2@@4@@Z @809
    ?CreateFontW@FontManager@DuiLib@@QAE?AV?$shared_ptr@UtagTFontInfo@DuiLib@@@std@@PB_WHH_N11PAUHDC__@@0E@Z @810
    ?CreateImageFilter@ChatViewImageFilter@DuiLib@@SA?AV?$shared_ptr@VIImageFilter@DuiLib@@@std@@XZ @811
    ?CreatePrivateResData@TResData@DuiLib@@SA?AV?$shared_ptr@VTResData@DuiLib@@@std@@PBXK@Z @812
    ?CreateRectRgnIndirect@DuiApi@@YAPAUHRGN__@@PBUtagRECT@@@Z @813
    ?CreateRoundRectRgn@DuiApi@@YAPAUHRGN__@@HHHHHH@Z @814
    ?CreateSharedResData@TResData@DuiLib@@SA?AV?$shared_ptr@VTResData@DuiLib@@@std@@PBXK@Z @815
    ?CreateSplitter@CHeaderControlUI@DuiLib@@AAEPAVCControlUI@2@XZ @816
    ?CreateSubMenuWnd@CMenuElementUI@DuiLib@@IAEX_N@Z @817
    ?CreateWinResLoader@CResManager@DuiLib@@SA?AV?$shared_ptr@VIResLoader@DuiLib@@@std@@PAUHINSTANCE__@@G@Z @818
    ?CreateWindowExW@DuiApi@@YAPAUHWND__@@KPB_W0KHHHHPAU2@PAUHMENU__@@PAUHINSTANCE__@@PAX@Z @819
    ?Cut@CRichEditUI@DuiLib@@QAEXXZ @820
    ?DUISpiderGetCount@CContainerUI@DuiLib@@QBEHXZ @821
    ?DUISpiderGetItemAt@CContainerUI@DuiLib@@QBEPAVCControlUI@2@H@Z @822
    ?DUI__Trace@DuiLib@@YAXPB_WZZ @823
    ?DUI__TraceMsg@DuiLib@@YAPB_WI@Z @824
    ?DeferWindowPos@DuiApi@@YAPAXPAXPAUHWND__@@1HHHHI@Z @825
    ?Deflate@CDuiRect@DuiLib@@QAEXHH@Z @826
    ?DelaySetFocus@CControlUI@DuiLib@@UAEXXZ @827
    ?DelaySetFocus@CPaintManagerUI@DuiLib@@QAEXPAVCControlUI@2@_N@Z @828
    ?DeleteColumn@CHeaderControlUI@DuiLib@@QAE_NH@Z @829
    ?DeleteGif@CGifAnimUI@DuiLib@@AAEXXZ @830
    ?Destroy@ChatViewImageFilter@DuiLib@@SAXXZ @831
    ?DispatchMessageToActiveMenu@CMenuWnd@DuiLib@@IAEXIIJ@Z @832
    ?DoCreateControl@CActiveXUI@DuiLib@@MAE_NXZ @833
    ?DoCreateControl@CWebBrowserUI@DuiLib@@UAE_NXZ @834
    ?DoCustomEvent@CControlUI@DuiLib@@IAE_NAAUtagTEventUI@2@@Z @835
    ?DoDragDrop@CControlUI@DuiLib@@UAEXPAUIDataObject@@KU_POINTL@@PAK@Z @836
    ?DoDragEnter@CControlUI@DuiLib@@UAEXPAUIDataObject@@KU_POINTL@@PAK@Z @837
    ?DoDragEnter@WindowImplBase@DuiLib@@MAEJPAUIDataObject@@KU_POINTL@@K@Z @838
    ?DoDragLeave@CControlUI@DuiLib@@UAEXXZ @839
    ?DoDragLeave@WindowImplBase@DuiLib@@MAEJXZ @840
    ?DoDragOver@CControlUI@DuiLib@@UAEXKU_POINTL@@PAK@Z @841
    ?DoEvent@CButtonLayoutUI@DuiLib@@UAEXAAUtagTEventUI@2@@Z @842
    ?DoEvent@CButtonUI@DuiLib@@UAEXAAUtagTEventUI@2@@Z @843
    ?DoEvent@CComboUI@DuiLib@@UAEXAAUtagTEventUI@2@@Z @844
    ?DoEvent@CContainerUI@DuiLib@@UAEXAAUtagTEventUI@2@@Z @845
    ?DoEvent@CControlUI@DuiLib@@UAEXAAUtagTEventUI@2@@Z @846
    ?DoEvent@CDateTimeUI@DuiLib@@UAEXAAUtagTEventUI@2@@Z @847
    ?DoEvent@CEditUI@DuiLib@@UAEXAAUtagTEventUI@2@@Z @848
    ?DoEvent@CFlowLayoutUI@DuiLib@@UAEXAAUtagTEventUI@2@@Z @849
    ?DoEvent@CGifAnimUI@DuiLib@@UAEXAAUtagTEventUI@2@@Z @850
    ?DoEvent@CHorizontalLayoutUI@DuiLib@@UAEXAAUtagTEventUI@2@@Z @851
    ?DoEvent@CLabelUI@DuiLib@@UAEXAAUtagTEventUI@2@@Z @852
    ?DoEvent@CListBodyUI@DuiLib@@UAEXAAUtagTEventUI@2@@Z @853
    ?DoEvent@CListContainerElementUI@DuiLib@@UAEXAAUtagTEventUI@2@@Z @854
    ?DoEvent@CListElementUI@DuiLib@@UAEXAAUtagTEventUI@2@@Z @855
    ?DoEvent@CListHeaderItemUI@DuiLib@@UAEXAAUtagTEventUI@2@@Z @856
    ?DoEvent@CListLabelElementUI@DuiLib@@UAEXAAUtagTEventUI@2@@Z @857
    ?DoEvent@CListTextElementUI@DuiLib@@UAEXAAUtagTEventUI@2@@Z @858
    ?DoEvent@CListUI@DuiLib@@UAEXAAUtagTEventUI@2@@Z @859
    ?DoEvent@CMenuElementUI@DuiLib@@UAEXAAUtagTEventUI@2@@Z @860
    ?DoEvent@CMenuUI@DuiLib@@UAEXAAUtagTEventUI@2@@Z @861
    ?DoEvent@CRichEditUI@DuiLib@@UAEXAAUtagTEventUI@2@@Z @862
    ?DoEvent@CScrollBarUI@DuiLib@@UAEXAAUtagTEventUI@2@@Z @863
    ?DoEvent@CSliderUI@DuiLib@@UAEXAAUtagTEventUI@2@@Z @864
    ?DoEvent@CTextUI@DuiLib@@UAEXAAUtagTEventUI@2@@Z @865
    ?DoEvent@CTreeNodeUI@DuiLib@@UAEXAAUtagTEventUI@2@@Z @866
    ?DoEvent@CVerticalLayoutUI@DuiLib@@UAEXAAUtagTEventUI@2@@Z @867
    ?DoInit@CComboUI@DuiLib@@UAEXXZ @868
    ?DoInit@CContainerUI@DuiLib@@MAEXXZ @869
    ?DoInit@CControlUI@DuiLib@@UAEXXZ @870
    ?DoInit@CGifAnimUI@DuiLib@@UAEXXZ @871
    ?DoInit@CRichEditUI@DuiLib@@UAEXXZ @872
    ?DoPaint@CActiveXUI@DuiLib@@UAEXPAUHDC__@@ABUtagRECT@@@Z @873
    ?DoPaint@CComboUI@DuiLib@@UAEXPAUHDC__@@ABUtagRECT@@@Z @874
    ?DoPaint@CContainerUI@DuiLib@@UAEXPAUHDC__@@ABUtagRECT@@@Z @875
    ?DoPaint@CControlUI@DuiLib@@UAEXPAUHDC__@@ABUtagRECT@@@Z @876
    ?DoPaint@CGifAnimUI@DuiLib@@UAEXPAUHDC__@@ABUtagRECT@@@Z @877
    ?DoPaint@CListContainerElementUI@DuiLib@@UAEXPAUHDC__@@ABUtagRECT@@@Z @878
    ?DoPaint@CListLabelElementUI@DuiLib@@UAEXPAUHDC__@@ABUtagRECT@@@Z @879
    ?DoPaint@CMenuElementUI@DuiLib@@UAEXPAUHDC__@@ABUtagRECT@@@Z @880
    ?DoPaint@CRichEditCustomerUI@DuiLib@@UAEXPAUHDC__@@ABUtagRECT@@@Z @881
    ?DoPaint@CRichEditUI@DuiLib@@UAEXPAUHDC__@@ABUtagRECT@@@Z @882
    ?DoPaint@CScrollBarUI@DuiLib@@UAEXPAUHDC__@@ABUtagRECT@@@Z @883
    ?DoPaintRichEditContent@CRichEditUI@DuiLib@@QAEXPAUHDC__@@ABUtagRECT@@@Z @884
    ?DoPaintScrollBar@CRichEditUI@DuiLib@@QAEXPAUHDC__@@ABUtagRECT@@@Z @885
    ?DoPaintSubControl@CRichEditUI@DuiLib@@QAEXPAUHDC__@@ABUtagRECT@@@Z @886
    ?DoPostPaint@CControlUI@DuiLib@@UAEXPAUHDC__@@ABUtagRECT@@@Z @887
    ?DoPostPaint@CHorizontalLayoutUI@DuiLib@@UAEXPAUHDC__@@ABUtagRECT@@@Z @888
    ?DoPostPaint@CVerticalLayoutUI@DuiLib@@UAEXPAUHDC__@@ABUtagRECT@@@Z @889
    ?DoVirtualSeparatorEvent@CHorizontalLayoutUI@DuiLib@@UAEXUtagTEventUI@2@@Z @890
    ?DoVirtualSeparatorEvent@CVerticalLayoutUI@DuiLib@@UAEXUtagTEventUI@2@@Z @891
    ?Download@CWebBrowserUI@DuiLib@@UAGJPAUIMoniker@@PAUIBindCtx@@KJPAU_tagBINDINFO@@PB_W3I@Z @892
    ?DrawColor@CRenderEngine@DuiLib@@SAXPAUHDC__@@ABUtagRECT@@K@Z @893
    ?DrawEmoji@Emoji@DuiLib@@SAXPAUHDC__@@HHABVEmojiIndex@2@H@Z @894
    ?DrawEmojiEmotionWithHdc@DuiLib@@YAXPAUHDC__@@HHHHABVEmojiIndex@1@@Z @895
    ?DrawEmojiEmotionWithHdcGraphics@DuiLib@@YA_NAAVGraphics@Gdiplus@@HHHHABVEmojiIndex@1@V?$function@$$A6A?AV?$shared_ptr@VImage@Gdiplus@@@std@@XZ@std@@@Z @896
    ?DrawFlagEmojiWithHDC@DuiLib@@YA_NPAUHDC__@@HHHHABVEmojiIndex@1@@Z @897
    ?DrawFrame@CGifAnimUI@DuiLib@@AAEXPAUHDC__@@@Z @898
    ?DrawGradient@CRenderEngine@DuiLib@@SAXPAUHDC__@@ABUtagRECT@@KK_NH@Z @899
    ?DrawHtmlText@CRenderEngine@DuiLib@@SAXPAUHDC__@@PAVCPaintManagerUI@2@VHtmlTextInfo@12@@Z @900
    ?DrawHtmlTextUsingCustomDefaultFont@CRenderEngine@DuiLib@@SAXPAUHDC__@@PAVCPaintManagerUI@2@VHtmlTextInfo@12@@Z @901
    ?DrawImage@CControlUI@DuiLib@@QAE_NPAUHDC__@@PB_W1@Z @902
    ?DrawImage@ChatViewImageFilter@DuiLib@@UAEXPAUHDC__@@ABVEmojiIndex@2@ABUtagRECT@@@Z @903
    ?DrawImage@ChatViewImageFilter@DuiLib@@UAE_NPAUHDC__@@ABVCDuiString@2@ABUtagRECT@@PAVCPaintManagerUI@2@_N@Z @904
    ?DrawImageByGdiplus@CRenderEngine@DuiLib@@SA_NPAUHDC__@@ABUtagRECT@@ABV?$shared_ptr@VImage@Gdiplus@@@std@@H@Z @905
    ?DrawImageString@CRenderEngine@DuiLib@@SA_NPAUHDC__@@ABUtagRECT@@HPB_W2@Z @906
    ?DrawItemBk@CListContainerElementUI@DuiLib@@QAEXPAUHDC__@@ABUtagRECT@@@Z @907
    ?DrawItemBk@CListElementUI@DuiLib@@QAEXPAUHDC__@@ABUtagRECT@@@Z @908
    ?DrawItemExpland@CMenuElementUI@DuiLib@@QAEXPAUHDC__@@ABUtagRECT@@@Z @909
    ?DrawItemIcon@CMenuElementUI@DuiLib@@UAEXPAUHDC__@@ABUtagRECT@@@Z @910
    ?DrawItemText@CListContainerElementUI@DuiLib@@UAEXPAUHDC__@@ABUtagRECT@@@Z @911
    ?DrawItemText@CListLabelElementUI@DuiLib@@UAEXPAUHDC__@@ABUtagRECT@@@Z @912
    ?DrawItemText@CListTextElementUI@DuiLib@@UAEXPAUHDC__@@ABUtagRECT@@@Z @913
    ?DrawItemText@CMenuElementUI@DuiLib@@UAEXPAUHDC__@@ABUtagRECT@@@Z @914
    ?DrawLine@CRenderEngine@DuiLib@@SAXPAUHDC__@@ABUtagRECT@@HKH@Z @915
    ?DrawMask@CRenderEngine@DuiLib@@SAXPAUHDC__@@ABUtagRECT@@KM@Z @916
    ?DrawMemBuffer@CRichEditCustomerUI@DuiLib@@IAEXPAUHDC__@@ABUtagRECT@@@Z @917
    ?DrawRawTextWithEmoji@CRenderEngine@DuiLib@@SAXPAUHDC__@@PAVCPaintManagerUI@2@VHtmlTextInfo@12@@Z @918
    ?DrawRect@CRenderEngine@DuiLib@@SAXPAUHDC__@@ABUtagRECT@@HK@Z @919
    ?DrawRoundRect@CRenderEngine@DuiLib@@SAXPAUHDC__@@ABUtagRECT@@HHHK@Z @920
    ?DrawSkinEmojiWithHDC@DuiLib@@YAXPAUHDC__@@HHHHABVEmojiIndex@1@@Z @921
    ?DrawTextA@DuiApi@@YAHPAUHDC__@@PBDHPAUtagRECT@@I@Z @922
    ?DrawTextByGdiplus@CRenderEngine@DuiLib@@SAXPAUHDC__@@PAVCPaintManagerUI@2@ABUtagRECT@@PB_WKHI@Z @923
    ?DrawTextW@CRenderEngine@DuiLib@@SAXPAUHDC__@@AAUtagRECT@@PB_WKKHH@Z @924
    ?DrawTextW@CRenderEngine@DuiLib@@SAXPAUHDC__@@PAVCPaintManagerUI@2@AAUtagRECT@@PB_WKHI@Z @925
    ?DrawTextW@CRenderEngine@DuiLib@@SAXPAUHDC__@@PAVCPaintManagerUI@2@AAUtagRECT@@PB_WKKHHH@Z @926
    ?DrawTextW@DuiApi@@YAHPAUHDC__@@PB_WHPAUtagRECT@@I@Z @927
    ?DrawZeroWidthEmojiWithHDC@DuiLib@@YAXPAUHDC__@@HHHHABVEmojiIndex@1@@Z @928
    ?DuiGetStyleValue@DuiLib@@YA?AVCDuiString@1@ABV21@0@Z @929
    ?DuiGetStyleValueColor@DuiLib@@YAKABVCDuiString@1@0@Z @930
    ?DuiGetStyleValueInteger@DuiLib@@YAHABVCDuiString@1@0@Z @931
    ?DuiGetStyleValueRECT@DuiLib@@YA?AUtagRECT@@ABVCDuiString@1@0@Z @932
    ?DuiSetStyle@DuiLib@@YAXABVCDuiString@1@@Z @933
    ?EmojiDuiTextToUtf16@Emoji@DuiLib@@SA?AV?$basic_string@_WU?$char_traits@_W@std@@V?$allocator@_W@2@@std@@ABV34@@Z @934
    ?EmojiEmotionCount@DuiLib@@YAHXZ @935
    ?EmojiSize@Emoji@DuiLib@@SA?AUtagSIZE@@H@Z @936
    ?Empty@CDuiRect@DuiLib@@QAEXXZ @937
    ?Empty@CDuiString@DuiLib@@QAEXXZ @938
    ?Empty@CStdIntArray@DuiLib@@QAEXXZ @939
    ?Empty@CStdPtrArray@DuiLib@@QAEXXZ @940
    ?Empty@CStdValArray@DuiLib@@QAEXXZ @941
    ?EmptyUndoBuffer@CRichEditUI@DuiLib@@QAEXXZ @942
    ?EnableCaret@CRichEditCustomerUI@DuiLib@@UAE_NXZ @943
    ?EnableCaret@CRichEditUI@DuiLib@@UAE_NXZ @944
    ?EnableCustomTabStop@CPaintManagerUI@DuiLib@@QAEX_N@Z @945
    ?EnableDropTargetHelpher@CPaintManagerUI@DuiLib@@QAEX_N@Z @946
    ?EnableEventDetector@CRichEditCustomerUI@DuiLib@@QAEX_N@Z @947
    ?EnableEventDetector@CRichEditCustomerUI@DuiLib@@QAE_NXZ @948
    ?EnableIme@CPaintManagerUI@DuiLib@@AAEX_N@Z @949
    ?EnableModeless@CWebBrowserUI@DuiLib@@UAGJH@Z @950
    ?EnableScrollBar@CContainerUI@DuiLib@@UAEX_N0@Z @951
    ?EnableScrollBar@CListUI@DuiLib@@UAEX_N0@Z @952
    ?EnableTabOrder@CPaintManagerUI@DuiLib@@QAEX_N@Z @953
    ?EncodeEmojiCode@Emoji@DuiLib@@SA?AV?$basic_string@_WU?$char_traits@_W@std@@V?$allocator@_W@2@@std@@V?$vector@IV?$allocator@I@std@@@4@@Z @954
    ?EncodeEmojiDuiText@Emoji@DuiLib@@SA?AV?$basic_string@_WU?$char_traits@_W@std@@V?$allocator@_W@2@@std@@V?$vector@IV?$allocator@I@std@@@4@@Z @955
    ?EndDown@CContainerUI@DuiLib@@UAEXXZ @956
    ?EndDown@CListUI@DuiLib@@UAEXXZ @957
    ?EndDown@CRichEditUI@DuiLib@@UAEXXZ @958
    ?EndHookMouse@CPaintManagerUI@DuiLib@@SAXXZ @959
    ?EndPaint@DuiApi@@YAHPAUHWND__@@PBUtagPAINTSTRUCT@@@Z @960
    ?EndRight@CContainerUI@DuiLib@@UAEXXZ @961
    ?EndRight@CListUI@DuiLib@@UAEXXZ @962
    ?EndRight@CRichEditUI@DuiLib@@UAEXXZ @963
    ?EnsureVisible@CListUI@DuiLib@@QAEXH@Z @964
    ?Equals@CDelegateBase@DuiLib@@UBE_NABV12@@Z @965
    ?EscapeDuiHtmlText@CRenderEngine@DuiLib@@CA?AV?$basic_string@_WU?$char_traits@_W@std@@V?$allocator@_W@2@@std@@ABV34@@Z @966
    ?EstimateExpandChildren@CFlexLayoutUI@DuiLib@@IAEHVEstimateContraint@2@_NHHAAH@Z @967
    ?EstimateExpandChildren@CFlowLayoutUI@DuiLib@@IAEHVEstimateContraint@2@_NHHAAH@Z @968
    ?EstimateExpandChildren@CHorizontalLayoutUI@DuiLib@@IAEHVEstimateContraint@2@_NHHAAH@Z @969
    ?EstimateExpandChildren@CVerticalLayoutUI@DuiLib@@IAEHVEstimateContraint@2@_NHHAAH@Z @970
    ?EstimateFitChildren@CFlexLayoutUI@DuiLib@@IAEHVEstimateContraint@2@_NHHAAH@Z @971
    ?EstimateFitChildren@CFlowLayoutUI@DuiLib@@IAEHVEstimateContraint@2@_NHHAAH@Z @972
    ?EstimateFitChildren@CHorizontalLayoutUI@DuiLib@@IAEHVEstimateContraint@2@_NHHAAH@Z @973
    ?EstimateFitChildren@CVerticalLayoutUI@DuiLib@@IAEHVEstimateContraint@2@_NHHAAH@Z @974
    ?EstimateFixedChildren@CFlexLayoutUI@DuiLib@@IAEHVEstimateContraint@2@_NHHAAH@Z @975
    ?EstimateFixedChildren@CFlowLayoutUI@DuiLib@@IAEHVEstimateContraint@2@_NHHAAH@Z @976
    ?EstimateFixedChildren@CHorizontalLayoutUI@DuiLib@@IAEHVEstimateContraint@2@_NHHAAH@Z @977
    ?EstimateFixedChildren@CVerticalLayoutUI@DuiLib@@IAEHVEstimateContraint@2@_NHHAAH@Z @978
    ?EstimateSize@CButtonUI@DuiLib@@UAE?AUtagSIZE@@U3@ABVEstimateContraint@2@_N@Z @979
    ?EstimateSize@CComboUI@DuiLib@@UAE?AUtagSIZE@@U3@ABVEstimateContraint@2@_N@Z @980
    ?EstimateSize@CControlUI@DuiLib@@UAE?AUtagSIZE@@U3@ABVEstimateContraint@2@_N@Z @981
    ?EstimateSize@CEditUI@DuiLib@@UAE?AUtagSIZE@@U3@ABVEstimateContraint@2@_N@Z @982
    ?EstimateSize@CFlexLayoutUI@DuiLib@@UAE?AUtagSIZE@@U3@ABVEstimateContraint@2@_N@Z @983
    ?EstimateSize@CFlowLayoutUI@DuiLib@@UAE?AUtagSIZE@@U3@ABVEstimateContraint@2@_N@Z @984
    ?EstimateSize@CHorizontalLayoutUI@DuiLib@@UAE?AUtagSIZE@@U3@ABVEstimateContraint@2@_N@Z @985
    ?EstimateSize@CLabelUI@DuiLib@@UAE?AUtagSIZE@@U3@ABVEstimateContraint@2@_N@Z @986
    ?EstimateSize@CListHeaderItemUI@DuiLib@@UAE?AUtagSIZE@@U3@ABVEstimateContraint@2@_N@Z @987
    ?EstimateSize@CListHeaderUI@DuiLib@@UAE?AUtagSIZE@@U3@ABVEstimateContraint@2@_N@Z @988
    ?EstimateSize@CListLabelElementUI@DuiLib@@UAE?AUtagSIZE@@U3@ABVEstimateContraint@2@_N@Z @989
    ?EstimateSize@CListTextElementUI@DuiLib@@UAE?AUtagSIZE@@U3@ABVEstimateContraint@2@_N@Z @990
    ?EstimateSize@CMenuElementUI@DuiLib@@UAE?AUtagSIZE@@U3@ABVEstimateContraint@2@_N@Z @991
    ?EstimateSize@CMenuUI@DuiLib@@UAE?AUtagSIZE@@U3@ABVEstimateContraint@2@_N@Z @992
    ?EstimateSize@COptionUI@DuiLib@@UAE?AUtagSIZE@@U3@ABVEstimateContraint@2@_N@Z @993
    ?EstimateSize@CRichEditUI@DuiLib@@UAE?AUtagSIZE@@U3@ABVEstimateContraint@2@_N@Z @994
    ?EstimateSize@CTextUI@DuiLib@@UAE?AUtagSIZE@@U3@ABVEstimateContraint@2@_N@Z @995
    ?EstimateSize@CVerticalLayoutUI@DuiLib@@UAE?AUtagSIZE@@U3@ABVEstimateContraint@2@_N@Z @996
    ?EstimateSizeForColumnMainAsix@CFlexLayoutUI@DuiLib@@AAE?AUtagSIZE@@U3@ABU3@ABVEstimateContraint@2@_N@Z @997
    ?EstimateSizeForRowMainAsix@CFlexLayoutUI@DuiLib@@AAE?AUtagSIZE@@U3@ABU3@ABVEstimateContraint@2@_N@Z @998
    ?EstimateTextWidth@CLabelUI@DuiLib@@QAEHXZ @999
    ?Event@CControlUI@DuiLib@@UAEXAAUtagTEventUI@2@@Z @1000
    ?Exec@CWebBrowserUI@DuiLib@@UAGJPBU_GUID@@KKPAUtagVARIANT@@1@Z @1001
    ?ExistsColumn@CHeaderControlUI@DuiLib@@AAE_NPAVCControlUI@2@@Z @1002
    ?Expand@CListContainerElementUI@DuiLib@@UAE_N_N@Z @1003
    ?Expand@CListElementUI@DuiLib@@UAE_N_N@Z @1004
    ?Expand@CTreeNodeUI@DuiLib@@UAE_N_N@Z @1005
    ?ExpandItem@CListUI@DuiLib@@UAE_NH_N@Z @1006
    ?FillEmojiRecord@EmotionList@DuiLib@@AAEXV?$shared_ptr@UEmojiRecord@@@std@@ABV?$basic_string@_WU?$char_traits@_W@std@@V?$allocator@_W@2@@4@1@Z @1007
    ?FillEmotionRecord@EmotionList@DuiLib@@AAEXV?$shared_ptr@UEmotionRecord@@@std@@ABV?$basic_string@_WU?$char_traits@_W@std@@V?$allocator@_W@2@@4@1@Z @1008
    ?FillRect@DuiApi@@YAHPAUHDC__@@PBUtagRECT@@PAUHBRUSH__@@@Z @1009
    ?FilterDataObject@CWebBrowserUI@DuiLib@@UAGJPAUIDataObject@@PAPAU3@@Z @1010
    ?Finalize@CRenderEngine@DuiLib@@SAXXZ @1011
    ?Finalize@CResManager@DuiLib@@SAXXZ @1012
    ?Find@CDuiString@DuiLib@@QBEHPB_WH@Z @1013
    ?Find@CDuiString@DuiLib@@QBEH_WH@Z @1014
    ?Find@CStdIntArray@DuiLib@@QBEHH@Z @1015
    ?Find@CStdPtrArray@DuiLib@@QBEHPAX@Z @1016
    ?Find@CStdStringPtrMap@DuiLib@@QBEPAXPB_W_N@Z @1017
    ?FindAllEmojiInText@Emoji@DuiLib@@SA?AV?$vector@V?$tuple@HHVEmojiIndex@DuiLib@@@std@@V?$allocator@V?$tuple@HHVEmojiIndex@DuiLib@@@std@@@2@@std@@ABV?$basic_string@_WU?$char_traits@_W@std@@V?$allocator@_W@2@@4@@Z @1018
    ?FindControl@CContainerUI@DuiLib@@UAEPAVCControlUI@2@P6GPAV32@PAV32@PAX@Z1I@Z @1019
    ?FindControl@CControlUI@DuiLib@@UAEPAV12@P6GPAV12@PAV12@PAX@Z1I@Z @1020
    ?FindControl@CPaintManagerUI@DuiLib@@QBEPAVCControlUI@2@PB_W@Z @1021
    ?FindControl@CPaintManagerUI@DuiLib@@QBEPAVCControlUI@2@UtagPOINT@@@Z @1022
    ?FindFont@CPaintManagerUI@DuiLib@@QAE_NPAUHFONT__@@@Z @1023
    ?FindFont@CPaintManagerUI@DuiLib@@QAE_NPB_WH_N11@Z @1024
    ?FindId@CWebBrowserUI@DuiLib@@SAJPAUIDispatch@@PA_W@Z @1025
    ?FindObjectAtPos@CRichEditUI@DuiLib@@QAE_NABUtagPOINT@@ABU_GUID@@PAPAXPAUtagRECT@@@Z @1026
    ?FindOleObjectAtPos@CRichEditUI@DuiLib@@QAEPAUIOleObject@@ABUtagPOINT@@@Z @1027
    ?FindSelectable@CContainerUI@DuiLib@@UBEHH_N@Z @1028
    ?FindSubControl@CContainerUI@DuiLib@@QAEPAVCControlUI@2@PB_W@Z @1029
    ?FindSubControlByClass@CPaintManagerUI@DuiLib@@QAEPAVCControlUI@2@PAV32@PB_WH@Z @1030
    ?FindSubControlByName@CPaintManagerUI@DuiLib@@QBEPAVCControlUI@2@PAV32@PB_W@Z @1031
    ?FindSubControlByPoint@CPaintManagerUI@DuiLib@@QBEPAVCControlUI@2@PAV32@UtagPOINT@@@Z @1032
    ?FindSubControlsByClass@CPaintManagerUI@DuiLib@@QAEPAVCStdPtrArray@2@PAVCControlUI@2@PB_W@Z @1033
    ?FindWord@CDuiString@DuiLib@@SAPB_WPB_W0@Z @1034
    ?ForceUpdateScrollbar@CListUI@DuiLib@@QAEXXZ @1035
    ?Format@CDuiString@DuiLib@@QAAHPB_WZZ @1036
    ?Freeze@CRichEditUI@DuiLib@@QAEXXZ @1037
    ?GdiplusRectToRect@DuiLib@@YA?AUtagRECT@@ABVRect@Gdiplus@@@Z @1038
    ?GenerateClip@CRenderClip@DuiLib@@SAXPAUHDC__@@UtagRECT@@AAV12@@Z @1039
    ?GenerateRoundClip@CRenderClip@DuiLib@@SAXPAUHDC__@@UtagRECT@@1HHAAV12@@Z @1040
    ?GetAccessible@CControlUI@DuiLib@@UAEPAUIAccessible@@XZ @1041
    ?GetAccessible@CWindowWnd@DuiLib@@UAEPAUIAccessible@@XZ @1042
    ?GetAdjustColor@CControlUI@DuiLib@@QAEKK@Z @1043
    ?GetAlignmentPt@CControlUI@DuiLib@@UAE?AUtagSIZE@@XZ @1044
    ?GetAlignmentX@CControlUI@DuiLib@@UAEPB_WXZ @1045
    ?GetAlignmentY@CControlUI@DuiLib@@UAEPB_WXZ @1046
    ?GetAllEmoji@Emoji@DuiLib@@SAABV?$map@IHU?$less@I@std@@V?$allocator@U?$pair@$$CBIH@std@@@2@@std@@XZ @1047
    ?GetAt@CDuiString@DuiLib@@QBE_WH@Z @1048
    ?GetAt@CStdIntArray@DuiLib@@QBEHH@Z @1049
    ?GetAt@CStdPtrArray@DuiLib@@QBEPAXH@Z @1050
    ?GetAt@CStdStringPtrMap@DuiLib@@QBEPB_WH@Z @1051
    ?GetAt@CStdValArray@DuiLib@@QBEPAXH@Z @1052
    ?GetAttributeCount@CMarkupNode@DuiLib@@QAEHXZ @1053
    ?GetAttributeName@CMarkupNode@DuiLib@@QAEPB_WH@Z @1054
    ?GetAttributeValue@CMarkupNode@DuiLib@@QAEPB_WH@Z @1055
    ?GetAttributeValue@CMarkupNode@DuiLib@@QAEPB_WPB_W@Z @1056
    ?GetAttributeValue@CMarkupNode@DuiLib@@QAE_NHPA_WK@Z @1057
    ?GetAttributeValue@CMarkupNode@DuiLib@@QAE_NPB_WPA_WK@Z @1058
    ?GetAttributes@CFlexLayoutUI@DuiLib@@QAE?AVAttributes@12@XZ @1059
    ?GetAutoURLDetect@CRichEditUI@DuiLib@@QBE_NXZ @1060
    ?GetBaselineRevise@CLabelUI@DuiLib@@QAEHXZ @1061
    ?GetBaselineRevise@CRichEditUI@DuiLib@@QAEHXZ @1062
    ?GetBkColor2@CControlUI@DuiLib@@QBEKXZ @1063
    ?GetBkColor3@CControlUI@DuiLib@@QBEKXZ @1064
    ?GetBkColor@CControlUI@DuiLib@@QBEKXZ @1065
    ?GetBkColorGradientPercent@CControlUI@DuiLib@@QAEHXZ @1066
    ?GetBkColorGradientVertical@CControlUI@DuiLib@@QAE_NXZ @1067
    ?GetBkDisabledImage@CScrollBarUI@DuiLib@@QAEPB_WXZ @1068
    ?GetBkHotImage@CScrollBarUI@DuiLib@@QAEPB_WXZ @1069
    ?GetBkImage@CControlUI@DuiLib@@QBEPB_WXZ @1070
    ?GetBkImage@CGifAnimUI@DuiLib@@QAEPB_WXZ @1071
    ?GetBkNormalImage@CScrollBarUI@DuiLib@@QAEPB_WXZ @1072
    ?GetBkPushedImage@CScrollBarUI@DuiLib@@QAEPB_WXZ @1073
    ?GetBoolAttribute@DuiLib@@YA_NPB_W@Z @1074
    ?GetBorderColor@CControlUI@DuiLib@@QBEKXZ @1075
    ?GetBorderRound@CControlUI@DuiLib@@QBE?AUtagSIZE@@XZ @1076
    ?GetBorderSize@CControlUI@DuiLib@@QBEHXZ @1077
    ?GetBorderStyle@CControlUI@DuiLib@@QBEHXZ @1078
    ?GetBottomBorderSize@CControlUI@DuiLib@@QBEHXZ @1079
    ?GetButton1DisabledImage@CScrollBarUI@DuiLib@@QAEPB_WXZ @1080
    ?GetButton1HotImage@CScrollBarUI@DuiLib@@QAEPB_WXZ @1081
    ?GetButton1NormalImage@CScrollBarUI@DuiLib@@QAEPB_WXZ @1082
    ?GetButton1PushedImage@CScrollBarUI@DuiLib@@QAEPB_WXZ @1083
    ?GetButton2DisabledImage@CScrollBarUI@DuiLib@@QAEPB_WXZ @1084
    ?GetButton2HotImage@CScrollBarUI@DuiLib@@QAEPB_WXZ @1085
    ?GetButton2NormalImage@CScrollBarUI@DuiLib@@QAEPB_WXZ @1086
    ?GetButton2PushedImage@CScrollBarUI@DuiLib@@QAEPB_WXZ @1087
    ?GetCacheInfoByKey@ChatViewImageFilter@DuiLib@@IAE?AV?$shared_ptr@UEmotionCacheInfo@DuiLib@@@std@@ABV?$basic_string@_WU?$char_traits@_W@std@@V?$allocator@_W@2@@4@@Z @1088
    ?GetCanShiftSelect@CListUI@DuiLib@@QAE_NXZ @1089
    ?GetCaptionRect@CPaintManagerUI@DuiLib@@QAEAAUtagRECT@@XZ @1090
    ?GetCaretPos@DuiApi@@YAHPAUtagPOINT@@@Z @1091
    ?GetCascadeVisible@CTreeNodeUI@DuiLib@@AAE_NXZ @1092
    ?GetChangeStep@CSliderUI@DuiLib@@QAEHXZ @1093
    ?GetCharPos@CRichEditUI@DuiLib@@QBE?AVCPoint@2@J@Z @1094
    ?GetCheck@CCheckBoxUI@DuiLib@@UBE_NXZ @1095
    ?GetCheckBox@CTreeNodeUI@DuiLib@@QBEPAVCCheckBoxUI@2@XZ @1096
    ?GetCheckItem@CMenuElementUI@DuiLib@@QBE_NXZ @1097
    ?GetChecked@CMenuElementUI@DuiLib@@QBE_NXZ @1098
    ?GetChild@CMarkupNode@DuiLib@@QAE?AV12@PB_W@Z @1099
    ?GetChild@CMarkupNode@DuiLib@@QAE?AV12@XZ @1100
    ?GetChildLayoutXML@CChildLayoutUI@DuiLib@@QAE?AVCDuiString@2@XZ @1101
    ?GetChildNode@CTreeNodeUI@DuiLib@@QAEPAV12@H@Z @1102
    ?GetChildPadding@CContainerUI@DuiLib@@UBEHXZ @1103
    ?GetChildPadding@CListUI@DuiLib@@UBEHXZ @1104
    ?GetClass@CActiveXUI@DuiLib@@UBEPB_WXZ @1105
    ?GetClass@CButtonLayoutUI@DuiLib@@UBEPB_WXZ @1106
    ?GetClass@CButtonUI@DuiLib@@UBEPB_WXZ @1107
    ?GetClass@CCheckBoxUI@DuiLib@@UBEPB_WXZ @1108
    ?GetClass@CChildLayoutUI@DuiLib@@UBEPB_WXZ @1109
    ?GetClass@CComboBoxUI@DuiLib@@UBEPB_WXZ @1110
    ?GetClass@CComboUI@DuiLib@@UBEPB_WXZ @1111
    ?GetClass@CContainerUI@DuiLib@@UBEPB_WXZ @1112
    ?GetClass@CControlUI@DuiLib@@UBEPB_WXZ @1113
    ?GetClass@CDateTimeUI@DuiLib@@UBEPB_WXZ @1114
    ?GetClass@CEditUI@DuiLib@@UBEPB_WXZ @1115
    ?GetClass@CFlexLayoutUI@DuiLib@@UBEPB_WXZ @1116
    ?GetClass@CFlowLayoutUI@DuiLib@@UBEPB_WXZ @1117
    ?GetClass@CGifAnimUI@DuiLib@@UBEPB_WXZ @1118
    ?GetClass@CHeaderControlUI@DuiLib@@UBEPB_WXZ @1119
    ?GetClass@CHorizontalLayoutUI@DuiLib@@UBEPB_WXZ @1120
    ?GetClass@CLabelUI@DuiLib@@UBEPB_WXZ @1121
    ?GetClass@CListContainerElementUI@DuiLib@@UBEPB_WXZ @1122
    ?GetClass@CListElementUI@DuiLib@@UBEPB_WXZ @1123
    ?GetClass@CListHeaderItemUI@DuiLib@@UBEPB_WXZ @1124
    ?GetClass@CListHeaderUI@DuiLib@@UBEPB_WXZ @1125
    ?GetClass@CListLabelElementUI@DuiLib@@UBEPB_WXZ @1126
    ?GetClass@CListTextElementUI@DuiLib@@UBEPB_WXZ @1127
    ?GetClass@CListUI@DuiLib@@UBEPB_WXZ @1128
    ?GetClass@CMenuElementUI@DuiLib@@UBEPB_WXZ @1129
    ?GetClass@CMenuUI@DuiLib@@UBEPB_WXZ @1130
    ?GetClass@COptionUI@DuiLib@@UBEPB_WXZ @1131
    ?GetClass@CProgressUI@DuiLib@@UBEPB_WXZ @1132
    ?GetClass@CRichEditCustomerUI@DuiLib@@UBEPB_WXZ @1133
    ?GetClass@CRichEditUI@DuiLib@@UBEPB_WXZ @1134
    ?GetClass@CScrollBarUI@DuiLib@@UBEPB_WXZ @1135
    ?GetClass@CSliderUI@DuiLib@@UBEPB_WXZ @1136
    ?GetClass@CSplitterUI@DuiLib@@UBEPB_WXZ @1137
    ?GetClass@CTabLayoutUI@DuiLib@@UBEPB_WXZ @1138
    ?GetClass@CTextUI@DuiLib@@UBEPB_WXZ @1139
    ?GetClass@CTileLayoutUI@DuiLib@@UBEPB_WXZ @1140
    ?GetClass@CTreeNodeUI@DuiLib@@UBEPB_WXZ @1141
    ?GetClass@CTreeViewUI@DuiLib@@UBEPB_WXZ @1142
    ?GetClass@CVerticalLayoutUI@DuiLib@@UBEPB_WXZ @1143
    ?GetClass@CWebBrowserUI@DuiLib@@UBEPB_WXZ @1144
    ?GetClassStyle@CWindowWnd@DuiLib@@MBEIXZ @1145
    ?GetClassStyle@WindowImplBase@DuiLib@@UBEIXZ @1146
    ?GetClientRect@DuiApi@@YAHPAUHWND__@@PAUtagRECT@@@Z @1147
    ?GetClientSize@CPaintManagerUI@DuiLib@@QBE?AUtagSIZE@@XZ @1148
    ?GetClisd@CActiveXUI@DuiLib@@QBE?AU_GUID@@XZ @1149
    ?GetColorAttribute@DuiLib@@YAKPB_W@Z @1150
    ?GetColumn@CHeaderControlUI@DuiLib@@QAEPAVCControlUI@2@H@Z @1151
    ?GetColumnAtPos@CHeaderControlUI@DuiLib@@AAEPAVCControlUI@2@ABUtagPOINT@@@Z @1152
    ?GetColumnIndex@CHeaderControlUI@DuiLib@@QAEHPAVCControlUI@2@@Z @1153
    ?GetColumnWidth@CHeaderControlUI@DuiLib@@QAEHH@Z @1154
    ?GetColumns@CTileLayoutUI@DuiLib@@QBEHXZ @1155
    ?GetComboWND@CComboUI@DuiLib@@QAEPAUHWND__@@XZ @1156
    ?GetComboWNDManager@CComboUI@DuiLib@@QAEPAVCPaintManagerUI@2@XZ @1157
    ?GetComboWndShadowCorner@CComboUI@DuiLib@@QAE?AUtagRECT@@XZ @1158
    ?GetComboWndShadowImage@CComboUI@DuiLib@@QBEPB_WXZ @1159
    ?GetComboWndShowShadow@CComboUI@DuiLib@@QAE_NXZ @1160
    ?GetControl@CActiveXUI@DuiLib@@QAEJU_GUID@@PAPAX@Z @1161
    ?GetControlAdjustHeight@CSplitterUI@DuiLib@@AAEHPAVCControlUI@2@H@Z @1162
    ?GetControlAdjustWidth@CSplitterUI@DuiLib@@AAEHPAVCControlUI@2@H@Z @1163
    ?GetControlFlags@CButtonLayoutUI@DuiLib@@UBEIXZ @1164
    ?GetControlFlags@CButtonUI@DuiLib@@UBEIXZ @1165
    ?GetControlFlags@CComboUI@DuiLib@@UBEIXZ @1166
    ?GetControlFlags@CControlUI@DuiLib@@UBEIXZ @1167
    ?GetControlFlags@CEditUI@DuiLib@@UBEIXZ @1168
    ?GetControlFlags@CFlexLayoutUI@DuiLib@@UBEIXZ @1169
    ?GetControlFlags@CFlowLayoutUI@DuiLib@@UBEIXZ @1170
    ?GetControlFlags@CHorizontalLayoutUI@DuiLib@@UBEIXZ @1171
    ?GetControlFlags@CListContainerElementUI@DuiLib@@UBEIXZ @1172
    ?GetControlFlags@CListElementUI@DuiLib@@UBEIXZ @1173
    ?GetControlFlags@CListHeaderItemUI@DuiLib@@UBEIXZ @1174
    ?GetControlFlags@CListTextElementUI@DuiLib@@UBEIXZ @1175
    ?GetControlFlags@CListUI@DuiLib@@UBEIXZ @1176
    ?GetControlFlags@CRichEditUI@DuiLib@@UBEIXZ @1177
    ?GetControlFlags@CSliderUI@DuiLib@@UBEIXZ @1178
    ?GetControlFlags@CSplitterUI@DuiLib@@UBEIXZ @1179
    ?GetControlFlags@CTextUI@DuiLib@@UBEIXZ @1180
    ?GetControlFlags@CVerticalLayoutUI@DuiLib@@UBEIXZ @1181
    ?GetControlRect@CRichEditUI@DuiLib@@QAEXPAUtagRECT@@@Z @1182
    ?GetCount@CContainerUI@DuiLib@@UBEHXZ @1183
    ?GetCount@CListUI@DuiLib@@UBEHXZ @1184
    ?GetCountChild@CTreeNodeUI@DuiLib@@QAEJXZ @1185
    ?GetCurSel@CComboUI@DuiLib@@UBEHXZ @1186
    ?GetCurSel@CListUI@DuiLib@@UBEHXZ @1187
    ?GetCurSel@CTabLayoutUI@DuiLib@@QBEHXZ @1188
    ?GetCurrentActiveMenuWnd@ObserverImpl@DuiLib@@UAEPAVReceiverImplBase@2@XZ @1189
    ?GetCurrentMonitor@MonitorAdapter@DuiLib@@QAEPAUHMONITOR__@@XZ @1190
    ?GetCurrentPath@CPaintManagerUI@DuiLib@@SA?AVCDuiString@2@XZ @1191
    ?GetCurrentScreenRect@DuiApi@@YA?AUtagRECT@@XZ @1192
    ?GetCurrentScreenRect@MonitorAdapter@DuiLib@@QAE?AUtagRECT@@XZ @1193
    ?GetCurrentScreenWorkRect@CMenuWnd@DuiLib@@IAE?AUtagRECT@@XZ @1194
    ?GetCurrentScreenWorkRect@DuiApi@@YA?AUtagRECT@@XZ @1195
    ?GetCurrentScreenWorkRect@MonitorAdapter@DuiLib@@QAE?AUtagRECT@@XZ @1196
    ?GetCursor@CControlUI@DuiLib@@UBE?AVCDuiString@2@XZ @1197
    ?GetCursorPoint@CSplitterUI@DuiLib@@AAE?AUtagPOINT@@XZ @1198
    ?GetCursorPos@DuiApi@@YAHPAUtagPOINT@@@Z @1199
    ?GetCustomFontCount@CPaintManagerUI@DuiLib@@QBEKXZ @1200
    ?GetCustomHost@IRichEditHost@DuiLib@@UAEPAVCRichEditCustomerUI@2@XZ @1201
    ?GetDPIFactorByDPIX@CDPIUtils@DuiLib@@CAHH@Z @1202
    ?GetDPIFactorSuffix@CDPIUtils@DuiLib@@SA?AVCDuiString@2@H@Z @1203
    ?GetDPIScaleRatio@DuiApi@@YAMXZ @1204
    ?GetDPIX@DuiApi@@YAHXZ @1205
    ?GetDPIXOriginal@DuiApi@@YAHXZ @1206
    ?GetDPIY@DuiApi@@YAHXZ @1207
    ?GetData@CDuiString@DuiLib@@QBEPB_WXZ @1208
    ?GetData@CStdIntArray@DuiLib@@QAEPAHXZ @1209
    ?GetData@CStdPtrArray@DuiLib@@QAEPAPAXXZ @1210
    ?GetData@CStdValArray@DuiLib@@QAEPAXXZ @1211
    ?GetDebugEnableTrackingFocus@CControlUI@DuiLib@@SA_NXZ @1212
    ?GetDefaultAttribultes@CPaintManagerUI@DuiLib@@QBEABVCStdStringPtrMap@2@XZ @1213
    ?GetDefaultAttributeList@CPaintManagerUI@DuiLib@@QBEPB_WPB_W@Z @1214
    ?GetDefaultCharFormat@CRichEditUI@DuiLib@@QBEKAAUCHARFORMAT2W@@@Z @1215
    ?GetDefaultDisabledColor@CPaintManagerUI@DuiLib@@QBEKXZ @1216
    ?GetDefaultFontColor@CPaintManagerUI@DuiLib@@QBEKXZ @1217
    ?GetDefaultFontInfo@CPaintManagerUI@DuiLib@@QAEPAUtagTFontInfo@2@XZ @1218
    ?GetDefaultLinkFontColor@CPaintManagerUI@DuiLib@@QBEKXZ @1219
    ?GetDefaultLinkHoverFontColor@CPaintManagerUI@DuiLib@@QBEKXZ @1220
    ?GetDefaultSelectedBkColor@CPaintManagerUI@DuiLib@@QBEKXZ @1221
    ?GetDeviceCaps@DuiApi@@YAHPAUHDC__@@H@Z @1222
    ?GetDisabledImage@CButtonLayoutUI@DuiLib@@QAEPB_WXZ @1223
    ?GetDisabledImage@CButtonUI@DuiLib@@QAEPB_WXZ @1224
    ?GetDisabledImage@CComboUI@DuiLib@@QBEPB_WXZ @1225
    ?GetDisabledImage@CEditUI@DuiLib@@QAEPB_WXZ @1226
    ?GetDisabledItemBkColor@CComboUI@DuiLib@@QBEKXZ @1227
    ?GetDisabledItemBkColor@CListUI@DuiLib@@QBEKXZ @1228
    ?GetDisabledItemImage@CComboUI@DuiLib@@QBEPB_WXZ @1229
    ?GetDisabledItemImage@CListUI@DuiLib@@QBEPB_WXZ @1230
    ?GetDisabledItemTextColor@CComboUI@DuiLib@@QBEKXZ @1231
    ?GetDisabledItemTextColor@CListUI@DuiLib@@QBEKXZ @1232
    ?GetDisabledTextColor@CLabelUI@DuiLib@@QBEKXZ @1233
    ?GetDottedLine@CTreeNodeUI@DuiLib@@QBEPAVCLabelUI@2@XZ @1234
    ?GetDpiFactor@CControlUI@DuiLib@@UBEHXZ @1235
    ?GetDpiFactor@CPaintManagerUI@DuiLib@@QBEHXZ @1236
    ?GetDpiFactor@WindowImplBase@DuiLib@@QBEHXZ @1237
    ?GetDropBoxAttributeList@CComboUI@DuiLib@@QAE?AVCDuiString@2@XZ @1238
    ?GetDropBoxSize@CComboUI@DuiLib@@QBE?AUtagSIZE@@XZ @1239
    ?GetDropTarget@CWebBrowserUI@DuiLib@@UAGJPAUIDropTarget@@PAPAU3@@Z @1240
    ?GetDropTargetDelegate@CControlUI@DuiLib@@QAEPAVIDuiDropTarget@2@XZ @1241
    ?GetEmojiCodeByIndex@Emoji@DuiLib@@SAIH@Z @1242
    ?GetEmojiCodeFromEmojiIndex@Emoji@DuiLib@@SA?AV?$vector@IV?$allocator@I@std@@@std@@ABVEmojiIndex@2@@Z @1243
    ?GetEmojiEmotionSize@DuiLib@@YA?AVCSize@1@H@Z @1244
    ?GetEmojiImage@DuiLib@@YA?AV?$shared_ptr@VImage@Gdiplus@@@std@@ABVEmojiIndex@1@@Z @1245
    ?GetEmojiImageByCode@Emoji@DuiLib@@SA?AV?$shared_ptr@VImage@Gdiplus@@@std@@I@Z @1246
    ?GetEmojiImageByIndex@Emoji@DuiLib@@SA?AV?$shared_ptr@VImage@Gdiplus@@@std@@ABVEmojiIndex@2@@Z @1247
    ?GetEmojiIndex@Emoji@DuiLib@@SA?AVEmojiIndex@2@I@Z @1248
    ?GetEmojiIndexFromString@Emoji@DuiLib@@SA?AVEmojiIndex@2@ABV?$basic_string@_WU?$char_traits@_W@std@@V?$allocator@_W@2@@std@@@Z @1249
    ?GetEmojiTipsByIdx@EmotionList@DuiLib@@QAE?AV?$basic_string@_WU?$char_traits@_W@std@@V?$allocator@_W@2@@std@@H@Z @1250
    ?GetEmotionEnglishShortcutById@EmotionList@DuiLib@@QAE?AV?$basic_string@_WU?$char_traits@_W@std@@V?$allocator@_W@2@@std@@H@Z @1251
    ?GetEmotionIndexByEmotionId@EmotionList@DuiLib@@AAEHH@Z @1252
    ?GetEmotionIndexByShortcut@EmotionList@DuiLib@@AAEHABV?$basic_string@DU?$char_traits@D@std@@V?$allocator@D@2@@std@@@Z @1253
    ?GetEmotionInfo@EmotionList@DuiLib@@QAEPAUEmotionInfo@2@H@Z @1254
    ?GetEmotionInfoById@EmotionList@DuiLib@@QAEPAUEmotionInfo@2@H@Z @1255
    ?GetEmotionInfoByReplaceChar@EmotionList@DuiLib@@QAEPAUEmotionInfo@2@PB_W@Z @1256
    ?GetEmotionInfoByShortcut@EmotionList@DuiLib@@QAEPAUEmotionInfo@2@PB_W@Z @1257
    ?GetEmotionShortcutById@EmotionList@DuiLib@@QAEPB_WH@Z @1258
    ?GetEmotionTextByShortcut@DuiLib@@YA?AV?$basic_string@DU?$char_traits@D@std@@V?$allocator@D@2@@std@@ABV23@@Z @1259
    ?GetEmotionTips@EmotionManager@DuiLib@@QAEPB_WXZ @1260
    ?GetEnabledEffect@CLabelUI@DuiLib@@QAE_NXZ @1261
    ?GetEnabledShadow@CLabelUI@DuiLib@@QAE_NXZ @1262
    ?GetEnabledShowToolTips@CControlUI@DuiLib@@QAE_NXZ @1263
    ?GetEnabledStroke@CLabelUI@DuiLib@@QAE_NXZ @1264
    ?GetEventClickObject@CPaintManagerUI@DuiLib@@QAEPAVCControlUI@2@XZ @1265
    ?GetEventMask@CRichEditUI@DuiLib@@QBEKXZ @1266
    ?GetExpandedItem@CListUI@DuiLib@@UBEHXZ @1267
    ?GetExternal@CWebBrowserUI@DuiLib@@UAGJPAPAUIDispatch@@@Z @1268
    ?GetFaceInfo@EmotionList@DuiLib@@QAEAAV?$vector@PAUEmotionInfo@DuiLib@@V?$allocator@PAUEmotionInfo@DuiLib@@@std@@@std@@XZ @1269
    ?GetFitWidth@CControlUI@DuiLib@@UAEHH@Z @1270
    ?GetFitWidth@CLabelUI@DuiLib@@UAEHH@Z @1271
    ?GetFixedHeight@CControlUI@DuiLib@@UBEHXZ @1272
    ?GetFixedWidth@CControlUI@DuiLib@@UBEHXZ @1273
    ?GetFixedXY@CControlUI@DuiLib@@UBE?AUtagSIZE@@XZ @1274
    ?GetFlexAlignSelf@CControlUI@DuiLib@@UAEHXZ @1275
    ?GetFlexGrow@CControlUI@DuiLib@@UAEHXZ @1276
    ?GetFlexOrder@CControlUI@DuiLib@@UAEHXZ @1277
    ?GetFlexShrink@CControlUI@DuiLib@@UAEHXZ @1278
    ?GetFloatAttribute@DuiLib@@YAMPB_W@Z @1279
    ?GetFloatPosByAlignment@CContainerUI@DuiLib@@MAE?AUtagRECT@@PAVCControlUI@2@@Z @1280
    ?GetFn@CDelegateBase@DuiLib@@IBEPAXXZ @1281
    ?GetFocus@CPaintManagerUI@DuiLib@@QBEPAVCControlUI@2@XZ @1282
    ?GetFocusBorderColor@CControlUI@DuiLib@@QBEKXZ @1283
    ?GetFocusedImage@CButtonLayoutUI@DuiLib@@QAEPB_WXZ @1284
    ?GetFocusedImage@CButtonUI@DuiLib@@QAEPB_WXZ @1285
    ?GetFocusedImage@CComboUI@DuiLib@@QBEPB_WXZ @1286
    ?GetFocusedImage@CEditUI@DuiLib@@QAEPB_WXZ @1287
    ?GetFocusedImage@CListHeaderItemUI@DuiLib@@QBEPB_WXZ @1288
    ?GetFocusedTextColor@CButtonUI@DuiLib@@QBEKXZ @1289
    ?GetFolderButton@CTreeNodeUI@DuiLib@@QBEPAVCCheckBoxUI@2@XZ @1290
    ?GetFont@CLabelUI@DuiLib@@QBEHXZ @1291
    ?GetFont@CPaintManagerUI@DuiLib@@QAEPAUHFONT__@@H@Z @1292
    ?GetFont@CPaintManagerUI@DuiLib@@QAEPAUHFONT__@@H_N@Z @1293
    ?GetFont@CPaintManagerUI@DuiLib@@QAEPAUHFONT__@@PB_WH_N111@Z @1294
    ?GetFont@CRichEditUI@DuiLib@@QAEHXZ @1295
    ?GetFontIndex@CPaintManagerUI@DuiLib@@QAEHH_N0@Z @1296
    ?GetFontIndex@CPaintManagerUI@DuiLib@@QAEHH_N@Z @1297
    ?GetFontIndex@CPaintManagerUI@DuiLib@@QAEHPAUHFONT__@@@Z @1298
    ?GetFontIndex@CPaintManagerUI@DuiLib@@QAEHPB_W@Z @1299
    ?GetFontIndex@CPaintManagerUI@DuiLib@@QAEHPB_WH_N11@Z @1300
    ?GetFontInfo@CPaintManagerUI@DuiLib@@QAEPAUtagTFontInfo@2@H@Z @1301
    ?GetFontInfo@CPaintManagerUI@DuiLib@@QAEPAUtagTFontInfo@2@PAUHFONT__@@@Z @1302
    ?GetFontManager@CPaintManagerUI@DuiLib@@QAEPAVFontManager@2@XZ @1303
    ?GetFontSizeOffSet@CPaintManagerUI@DuiLib@@QAEHXZ @1304
    ?GetFontSizeOffset@EmotionManager@DuiLib@@QAEHXZ @1305
    ?GetForeImage@CButtonLayoutUI@DuiLib@@QAEPB_WXZ @1306
    ?GetForeImage@CButtonUI@DuiLib@@QAEPB_WXZ @1307
    ?GetForeImage@COptionUI@DuiLib@@QAEPB_WXZ @1308
    ?GetForeImage@CProgressUI@DuiLib@@QBEPB_WXZ @1309
    ?GetGlobalContextMenuObserver@CMenuWnd@DuiLib@@SAAAVObserverImpl@2@XZ @1310
    ?GetGlobalEnableScrollAnimate@CContainerUI@DuiLib@@SA_NXZ @1311
    ?GetGradientAngle@CLabelUI@DuiLib@@QAEHXZ @1312
    ?GetGradientLength@CLabelUI@DuiLib@@QAEHXZ @1313
    ?GetGroup@COptionUI@DuiLib@@QBEPB_WXZ @1314
    ?GetGrowItemsTotalVal@CFlexLayoutUI@DuiLib@@AAEHXZ @1315
    ?GetHSL@CPaintManagerUI@DuiLib@@SAXPAF00@Z @1316
    ?GetHWND@CWindowWnd@DuiLib@@QBEPAUHWND__@@XZ @1317
    ?GetHeader@CListUI@DuiLib@@UBEPAVCListHeaderUI@2@XZ @1318
    ?GetHeaderFixedWidth@CListUI@DuiLib@@IAEHXZ @1319
    ?GetHeight@CControlUI@DuiLib@@UBEHXZ @1320
    ?GetHeight@CDuiRect@DuiLib@@QBEHXZ @1321
    ?GetHeightType@CControlUI@DuiLib@@UBE?AW4MeasureType@2@XZ @1322
    ?GetHeightType@CLabelUI@DuiLib@@UBE?AW4MeasureType@2@XZ @1323
    ?GetHeightType@CListHeaderUI@DuiLib@@UBE?AW4MeasureType@2@XZ @1324
    ?GetHeightType@CTextUI@DuiLib@@UBE?AW4MeasureType@2@XZ @1325
    ?GetHintText@CRichEditUI@DuiLib@@QAEPB_WXZ @1326
    ?GetHomePage@CWebBrowserUI@DuiLib@@QAEPB_WXZ @1327
    ?GetHorizontalScrollBar@CContainerUI@DuiLib@@UBEPAVCScrollBarUI@2@XZ @1328
    ?GetHorizontalScrollBar@CListUI@DuiLib@@UBEPAVCScrollBarUI@2@XZ @1329
    ?GetHost@IRichEditHost@DuiLib@@UAEPAVCRichEditUI@2@XZ @1330
    ?GetHostClientRect@CRichEditUI@DuiLib@@QAE?AUtagRECT@@XZ @1331
    ?GetHostInfo@CWebBrowserUI@DuiLib@@UAGJPAU_DOCHOSTUIINFO@@@Z @1332
    ?GetHostWindow@CActiveXUI@DuiLib@@QBEPAUHWND__@@XZ @1333
    ?GetHotBkColor@CButtonLayoutUI@DuiLib@@QBEKXZ @1334
    ?GetHotBkColor@CButtonUI@DuiLib@@QBEKXZ @1335
    ?GetHotForeImage@CButtonLayoutUI@DuiLib@@QAEPB_WXZ @1336
    ?GetHotForeImage@CButtonUI@DuiLib@@QAEPB_WXZ @1337
    ?GetHotImage@CButtonLayoutUI@DuiLib@@QAEPB_WXZ @1338
    ?GetHotImage@CButtonUI@DuiLib@@QAEPB_WXZ @1339
    ?GetHotImage@CComboUI@DuiLib@@QBEPB_WXZ @1340
    ?GetHotImage@CEditUI@DuiLib@@QAEPB_WXZ @1341
    ?GetHotImage@CListHeaderItemUI@DuiLib@@QBEPB_WXZ @1342
    ?GetHotItemBkColor@CComboUI@DuiLib@@QBEKXZ @1343
    ?GetHotItemBkColor@CListUI@DuiLib@@QBEKXZ @1344
    ?GetHotItemImage@CComboUI@DuiLib@@QBEPB_WXZ @1345
    ?GetHotItemImage@CListUI@DuiLib@@QBEPB_WXZ @1346
    ?GetHotItemTextColor@CComboUI@DuiLib@@QBEKXZ @1347
    ?GetHotItemTextColor@CListUI@DuiLib@@QBEKXZ @1348
    ?GetHotKeyManager@CPaintManagerUI@DuiLib@@QAEPAVHotKeyManager@2@XZ @1349
    ?GetHotSelectedItemImage@CComboUI@DuiLib@@QBEPB_WXZ @1350
    ?GetHotTextColor@CButtonUI@DuiLib@@QBEKXZ @1351
    ?GetHotWidth@CSplitterUI@DuiLib@@QBEHXZ @1352
    ?GetHover@CPaintManagerUI@DuiLib@@QBEPAVCControlUI@2@XZ @1353
    ?GetHoverBkColor2@CControlUI@DuiLib@@QBEKXZ @1354
    ?GetHoverBkColor3@CControlUI@DuiLib@@QBEKXZ @1355
    ?GetHoverBkColor@CControlUI@DuiLib@@QBEKXZ @1356
    ?GetHoverImage@CControlUI@DuiLib@@QBEPB_WXZ @1357
    ?GetHtmlTextSize@CRenderEngine@DuiLib@@SA?AUtagSIZE@@PAUHDC__@@PAVCPaintManagerUI@2@PB_WH@Z @1358
    ?GetHtmlWindow@CWebBrowserUI@DuiLib@@QAEPAUIDispatch@@XZ @1359
    ?GetIDsOfNames@CDefaultAccessibility@DuiLib@@UAGJABU_GUID@@PAPA_WIKPAJ@Z @1360
    ?GetIDsOfNames@CWebBrowserUI@DuiLib@@UAGJABU_GUID@@PAPA_WIKPAJ@Z @1361
    ?GetIRichEditOle@CRichEditUI@DuiLib@@QAEPAUIRichEditOle@@XZ @1362
    ?GetImage@CShadowUI@DuiLib@@QAEPB_WXZ @1363
    ?GetImageFrameCount@CRenderEngine@DuiLib@@SAHPAVImage@Gdiplus@@@Z @1364
    ?GetImagePath@ChatViewImageFilter@DuiLib@@UAE?AVCDuiString@2@ABV32@@Z @1365
    ?GetImageSize@ChatViewImageFilter@DuiLib@@UAE?AUtagSIZE@@ABVCDuiString@2@PAVCPaintManagerUI@2@H@Z @1366
    ?GetIndex@CListContainerElementUI@DuiLib@@UBEHXZ @1367
    ?GetIndex@CListElementUI@DuiLib@@UBEHXZ @1368
    ?GetInitSize@CPaintManagerUI@DuiLib@@QAE?AUtagSIZE@@XZ @1369
    ?GetInputValidCharSet@CEditUI@DuiLib@@QBE?AVCDuiString@2@XZ @1370
    ?GetInset@CContainerUI@DuiLib@@UBE?AUtagRECT@@XZ @1371
    ?GetInstance@CPaintManagerUI@DuiLib@@SAPAUHINSTANCE__@@XZ @1372
    ?GetInstance@EmotionList@DuiLib@@SA?AV?$shared_ptr@VEmotionList@DuiLib@@@std@@XZ @1373
    ?GetInstance@EmotionManager@DuiLib@@SAPAV12@XZ @1374
    ?GetInstance@HookManager@DuiLib@@SAPAV12@XZ @1375
    ?GetInstance@MonitorAdapter@DuiLib@@SAPAV12@XZ @1376
    ?GetInstance@TagIDTranslator@globalization@@SAPAV12@XZ @1377
    ?GetInstancePath@CPaintManagerUI@DuiLib@@SA?AVCDuiString@2@XZ @1378
    ?GetIntAttribute@DuiLib@@YAHPB_W@Z @1379
    ?GetInterface@CActiveXUI@DuiLib@@UAEPAXPB_W@Z @1380
    ?GetInterface@CButtonLayoutUI@DuiLib@@UAEPAXPB_W@Z @1381
    ?GetInterface@CButtonUI@DuiLib@@UAEPAXPB_W@Z @1382
    ?GetInterface@CChildLayoutUI@DuiLib@@UAEPAXPB_W@Z @1383
    ?GetInterface@CComboUI@DuiLib@@UAEPAXPB_W@Z @1384
    ?GetInterface@CContainerUI@DuiLib@@UAEPAXPB_W@Z @1385
    ?GetInterface@CControlUI@DuiLib@@UAEPAXPB_W@Z @1386
    ?GetInterface@CDateTimeUI@DuiLib@@UAEPAXPB_W@Z @1387
    ?GetInterface@CEditUI@DuiLib@@UAEPAXPB_W@Z @1388
    ?GetInterface@CFlexLayoutUI@DuiLib@@UAEPAXPB_W@Z @1389
    ?GetInterface@CFlowLayoutUI@DuiLib@@UAEPAXPB_W@Z @1390
    ?GetInterface@CGifAnimUI@DuiLib@@UAEPAXPB_W@Z @1391
    ?GetInterface@CHeaderControlUI@DuiLib@@UAEPAXPB_W@Z @1392
    ?GetInterface@CHorizontalLayoutUI@DuiLib@@UAEPAXPB_W@Z @1393
    ?GetInterface@CLabelUI@DuiLib@@UAEPAXPB_W@Z @1394
    ?GetInterface@CListContainerElementUI@DuiLib@@UAEPAXPB_W@Z @1395
    ?GetInterface@CListElementUI@DuiLib@@UAEPAXPB_W@Z @1396
    ?GetInterface@CListHeaderItemUI@DuiLib@@UAEPAXPB_W@Z @1397
    ?GetInterface@CListHeaderUI@DuiLib@@UAEPAXPB_W@Z @1398
    ?GetInterface@CListLabelElementUI@DuiLib@@UAEPAXPB_W@Z @1399
    ?GetInterface@CListTextElementUI@DuiLib@@UAEPAXPB_W@Z @1400
    ?GetInterface@CListUI@DuiLib@@UAEPAXPB_W@Z @1401
    ?GetInterface@CMenuElementUI@DuiLib@@UAEPAXPB_W@Z @1402
    ?GetInterface@CMenuUI@DuiLib@@UAEPAXPB_W@Z @1403
    ?GetInterface@COptionUI@DuiLib@@UAEPAXPB_W@Z @1404
    ?GetInterface@CProgressUI@DuiLib@@UAEPAXPB_W@Z @1405
    ?GetInterface@CRichEditCustomerUI@DuiLib@@UAEPAXPB_W@Z @1406
    ?GetInterface@CRichEditUI@DuiLib@@UAEPAXPB_W@Z @1407
    ?GetInterface@CScrollBarUI@DuiLib@@UAEPAXPB_W@Z @1408
    ?GetInterface@CSliderUI@DuiLib@@UAEPAXPB_W@Z @1409
    ?GetInterface@CSplitterUI@DuiLib@@UAEPAXPB_W@Z @1410
    ?GetInterface@CTabLayoutUI@DuiLib@@UAEPAXPB_W@Z @1411
    ?GetInterface@CTextUI@DuiLib@@UAEPAXPB_W@Z @1412
    ?GetInterface@CTileLayoutUI@DuiLib@@UAEPAXPB_W@Z @1413
    ?GetInterface@CTreeNodeUI@DuiLib@@UAEPAXPB_W@Z @1414
    ?GetInterface@CTreeViewUI@DuiLib@@UAEPAXPB_W@Z @1415
    ?GetInterface@CVerticalLayoutUI@DuiLib@@UAEPAXPB_W@Z @1416
    ?GetInterface@CWebBrowserUI@DuiLib@@UAEPAXPB_W@Z @1417
    ?GetItemAt@CContainerUI@DuiLib@@UBEPAVCControlUI@2@H@Z @1418
    ?GetItemAt@CListUI@DuiLib@@UBEPAVCControlUI@2@H@Z @1419
    ?GetItemBkColor@CComboUI@DuiLib@@QBEKXZ @1420
    ?GetItemBkColor@CListUI@DuiLib@@QBEKXZ @1421
    ?GetItemBkImage@CComboUI@DuiLib@@QBEPB_WXZ @1422
    ?GetItemBkImage@CListUI@DuiLib@@QBEPB_WXZ @1423
    ?GetItemButton@CTreeNodeUI@DuiLib@@QBEPAVCOptionUI@2@XZ @1424
    ?GetItemHotTextColor@CTreeNodeUI@DuiLib@@QBEKXZ @1425
    ?GetItemIndex@CContainerUI@DuiLib@@UBEHPAVCControlUI@2@@Z @1426
    ?GetItemIndex@CListUI@DuiLib@@UBEHPAVCControlUI@2@@Z @1427
    ?GetItemIndex@CMenuUI@DuiLib@@UBEHPAVCControlUI@2@@Z @1428
    ?GetItemIndexByPosition@CListBodyUI@DuiLib@@QAEHH@Z @1429
    ?GetItemIndexByPosition@CListUI@DuiLib@@QBEHH@Z @1430
    ?GetItemLineColor@CComboUI@DuiLib@@QBEKXZ @1431
    ?GetItemLineColor@CListUI@DuiLib@@QBEKXZ @1432
    ?GetItemLineHeight@CListUI@DuiLib@@QBEHXZ @1433
    ?GetItemMinWidth@CTreeViewUI@DuiLib@@UAEIXZ @1434
    ?GetItemSize@CTileLayoutUI@DuiLib@@QBE?AUtagSIZE@@XZ @1435
    ?GetItemText@CTreeNodeUI@DuiLib@@QAE?AVCDuiString@2@XZ @1436
    ?GetItemTextColor@CComboUI@DuiLib@@QBEKXZ @1437
    ?GetItemTextColor@CListUI@DuiLib@@QBEKXZ @1438
    ?GetItemTextColor@CTreeNodeUI@DuiLib@@QBEKXZ @1439
    ?GetItemTextPadding@CComboUI@DuiLib@@QBE?AUtagRECT@@XZ @1440
    ?GetItemTextPadding@CListUI@DuiLib@@QBE?AUtagRECT@@XZ @1441
    ?GetLanguageID@CPaintManagerUI@DuiLib@@SAKXZ @1442
    ?GetLastErrorLocation@CDialogBuilder@DuiLib@@QBEXPA_WK@Z @1443
    ?GetLastErrorLocation@CMarkup@DuiLib@@QBEXPA_WK@Z @1444
    ?GetLastErrorMessage@CDialogBuilder@DuiLib@@QBEXPA_WK@Z @1445
    ?GetLastErrorMessage@CMarkup@DuiLib@@QBEXPA_WK@Z @1446
    ?GetLastNode@CTreeNodeUI@DuiLib@@QAEPAV12@XZ @1447
    ?GetLeftBorderSize@CControlUI@DuiLib@@QBEHXZ @1448
    ?GetLegalHeight@CControlUI@DuiLib@@QAEHH@Z @1449
    ?GetLegalSize@CControlUI@DuiLib@@QAE?AUtagSIZE@@U3@@Z @1450
    ?GetLegalWidth@CControlUI@DuiLib@@QAEHH@Z @1451
    ?GetLength@CDuiString@DuiLib@@QBEHXZ @1452
    ?GetLimitText@CRichEditUI@DuiLib@@QAEHXZ @1453
    ?GetLine@CRichEditUI@DuiLib@@QBE?AVCDuiString@2@HH@Z @1454
    ?GetLineColor@CMenuElementUI@DuiLib@@QBEKXZ @1455
    ?GetLineCount@CRichEditUI@DuiLib@@QBEHXZ @1456
    ?GetLineHeight@CRichEditUI@DuiLib@@QAEHXZ @1457
    ?GetLinePadding@CMenuElementUI@DuiLib@@QBE?AUtagRECT@@XZ @1458
    ?GetLineSize@CScrollBarUI@DuiLib@@QBEHXZ @1459
    ?GetLineType@CMenuElementUI@DuiLib@@QAE_NXZ @1460
    ?GetLinkContent@CListTextElementUI@DuiLib@@QAEPAVCDuiString@2@H@Z @1461
    ?GetLinkContent@CTextUI@DuiLib@@QAEPAVCDuiString@2@H@Z @1462
    ?GetList@CListUI@DuiLib@@UBEPAVCContainerUI@2@XZ @1463
    ?GetListInfo@CComboUI@DuiLib@@UAEPAUtagTListInfoUI@2@XZ @1464
    ?GetListInfo@CListUI@DuiLib@@UAEPAUtagTListInfoUI@2@XZ @1465
    ?GetLoaders@IResLoaderManager@DuiLib@@UAEABV?$vector@V?$shared_ptr@VIResLoader@DuiLib@@@std@@V?$allocator@V?$shared_ptr@VIResLoader@DuiLib@@@std@@@2@@std@@XZ @1466
    ?GetMainScreenRect@DuiApi@@YA?AUtagRECT@@XZ @1467
    ?GetMainScreenRect@MonitorAdapter@DuiLib@@QAE?AUtagRECT@@XZ @1468
    ?GetManager@CControlUI@DuiLib@@UBEPAVCPaintManagerUI@2@XZ @1469
    ?GetManager@ObserverImpl@DuiLib@@UBEPAVCPaintManagerUI@2@XZ @1470
    ?GetMaxChar@CEditUI@DuiLib@@QAEIXZ @1471
    ?GetMaxChar@CRichEditUI@DuiLib@@QBEHXZ @1472
    ?GetMaxCharLength@CEditUI@DuiLib@@QAEIXZ @1473
    ?GetMaxHeight@CControlUI@DuiLib@@UBEHXZ @1474
    ?GetMaxInfo@CPaintManagerUI@DuiLib@@QBE?AUtagSIZE@@XZ @1475
    ?GetMaxValue@CProgressUI@DuiLib@@QBEHXZ @1476
    ?GetMaxWidth@CControlUI@DuiLib@@UBEHXZ @1477
    ?GetMeasureSize@CControlUI@DuiLib@@UBE?AUtagSIZE@@XZ @1478
    ?GetMenuCallback@CMenuWnd@DuiLib@@QAEPAVIMenuCallback@2@XZ @1479
    ?GetMenuCheckInfo@ObserverImpl@DuiLib@@UBEPAV?$map@VCDuiString@DuiLib@@_NU?$less@VCDuiString@DuiLib@@@std@@V?$allocator@U?$pair@$$CBVCDuiString@DuiLib@@_N@std@@@4@@std@@XZ @1480
    ?GetMenuInset@CMenuWnd@DuiLib@@QAE?AUtagRECT@@XZ @1481
    ?GetMenuUI@CMenuWnd@DuiLib@@QAEPAVCMenuUI@2@XZ @1482
    ?GetMenuWnd@CMenuElementUI@DuiLib@@QAEPAVCMenuWnd@2@XZ @1483
    ?GetMenuWndCreator@CMenuWnd@DuiLib@@QAEPAVIMenuWndCreatorCallback@2@XZ @1484
    ?GetMessageMap@CNotifyPump@DuiLib@@MBEPBUDUI_MSGMAP@2@XZ @1485
    ?GetMessageMap@WindowImplBase@DuiLib@@MBEPBUDUI_MSGMAP@2@XZ @1486
    ?GetMinHeight@CControlUI@DuiLib@@UBEHXZ @1487
    ?GetMinInfo@CPaintManagerUI@DuiLib@@QBE?AUtagSIZE@@XZ @1488
    ?GetMinValue@CProgressUI@DuiLib@@QBEHXZ @1489
    ?GetMinWidth@CControlUI@DuiLib@@UBEHXZ @1490
    ?GetModify@CRichEditUI@DuiLib@@QBE_NXZ @1491
    ?GetModuleName@CActiveXUI@DuiLib@@QBE?AVCDuiString@2@XZ @1492
    ?GetMonitorByScreenPoint@MonitorAdapter@DuiLib@@QAEPAUHMONITOR__@@ABUtagPOINT@@@Z @1493
    ?GetMonitorInfoA@DuiApi@@YAHPAUHMONITOR__@@PAUtagMONITORINFO@@@Z @1494
    ?GetMonitorInfoW@DuiApi@@YAHPAUHMONITOR__@@PAUtagMONITORINFO@@@Z @1495
    ?GetMonitorRect@MonitorAdapter@DuiLib@@QAE?AUtagRECT@@PAUHMONITOR__@@H@Z @1496
    ?GetMousePos@CPaintManagerUI@DuiLib@@QBE?AUtagPOINT@@XZ @1497
    ?GetMouseWheelAdjustFontSize@CRichEditUI@DuiLib@@QAE_NXZ @1498
    ?GetMultiSelect@CListUI@DuiLib@@QAE_NXZ @1499
    ?GetName@CControlUI@DuiLib@@UBE?AVCDuiString@2@XZ @1500
    ?GetName@CMarkupNode@DuiLib@@QBEPB_WXZ @1501
    ?GetName@CMenuWnd@DuiLib@@QAE?AVCDuiString@2@XZ @1502
    ?GetNativeEditBkColor@CEditUI@DuiLib@@QBEKXZ @1503
    ?GetNeedHwndFocus@CPaintManagerUI@DuiLib@@QAE_NXZ @1504
    ?GetNextHeaderItem@CListHeaderItemUI@DuiLib@@IAEPAV12@XZ @1505
    ?GetNodeIndex@CTreeNodeUI@DuiLib@@QAEHXZ @1506
    ?GetNormalImage@CButtonLayoutUI@DuiLib@@QAEPB_WXZ @1507
    ?GetNormalImage@CButtonUI@DuiLib@@QAEPB_WXZ @1508
    ?GetNormalImage@CComboUI@DuiLib@@QBEPB_WXZ @1509
    ?GetNormalImage@CControlUI@DuiLib@@QBEPB_WXZ @1510
    ?GetNormalImage@CEditUI@DuiLib@@QAEPB_WXZ @1511
    ?GetNormalImage@CListHeaderItemUI@DuiLib@@QBEPB_WXZ @1512
    ?GetNotSupportEmojiTips@EmotionManager@DuiLib@@QAEPB_WXZ @1513
    ?GetObjectW@CDelegateBase@DuiLib@@IBEPAXXZ @1514
    ?GetOffScreenDC@CPaintManagerUI@DuiLib@@QBEPAUHDC__@@XZ @1515
    ?GetOldSelIdx@CComboUI@DuiLib@@QAEHXZ @1516
    ?GetOleObjectCount@CRichEditUI@DuiLib@@QAEHXZ @1517
    ?GetOneLineFitHeight@CRichEditUI@DuiLib@@QAEHXZ @1518
    ?GetOptionGroup@CPaintManagerUI@DuiLib@@QAEPAVCStdPtrArray@2@PB_W@Z @1519
    ?GetOptionKeyPath@CWebBrowserUI@DuiLib@@UAGJPAPA_WK@Z @1520
    ?GetOverflowX@CControlUI@DuiLib@@UBEPB_WXZ @1521
    ?GetOverflowY@CControlUI@DuiLib@@UBEPB_WXZ @1522
    ?GetOwner@CListContainerElementUI@DuiLib@@UAEPAVIListOwnerUI@2@XZ @1523
    ?GetOwner@CListElementUI@DuiLib@@UAEPAVIListOwnerUI@2@XZ @1524
    ?GetOwner@CScrollBarUI@DuiLib@@QBEPAVCContainerUI@2@XZ @1525
    ?GetOwnerWindow@CMenuUI@DuiLib@@QAEPAVCMenuWnd@2@XZ @1526
    ?GetPadding@CControlUI@DuiLib@@UBE?AUtagRECT@@XZ @1527
    ?GetPaintDC@CPaintManagerUI@DuiLib@@QBEPAUHDC__@@XZ @1528
    ?GetPaintManager@WindowImplBase@DuiLib@@UAEPAVCPaintManagerUI@2@XZ @1529
    ?GetPaintWindow@CControlUI@DuiLib@@UBEPAUHWND__@@XZ @1530
    ?GetPaintWindow@CPaintManagerUI@DuiLib@@UBEPAUHWND__@@XZ @1531
    ?GetParaFormat@CRichEditUI@DuiLib@@QBEKAAUPARAFORMAT2@@@Z @1532
    ?GetParent@CControlUI@DuiLib@@UBEPAV12@XZ @1533
    ?GetParent@CMarkupNode@DuiLib@@QAE?AV12@XZ @1534
    ?GetParentBkColor@CControlUI@DuiLib@@QAEKXZ @1535
    ?GetParentNode@CTreeNodeUI@DuiLib@@QAEPAV12@XZ @1536
    ?GetParentResource@CPaintManagerUI@DuiLib@@QBEPAV12@XZ @1537
    ?GetPasswordChar@CEditUI@DuiLib@@QBE_WXZ @1538
    ?GetPercent@CListHeaderItemUI@DuiLib@@QAEHXZ @1539
    ?GetPlaceholder@CComboUI@DuiLib@@QBE?AVCDuiString@2@XZ @1540
    ?GetPlaceholderColor@CEditUI@DuiLib@@QBEKXZ @1541
    ?GetPlugins@CPaintManagerUI@DuiLib@@SAPAVCStdPtrArray@2@XZ @1542
    ?GetPointFromLParam@CSplitterUI@DuiLib@@AAE?AUtagPOINT@@J@Z @1543
    ?GetPointerCnt@CPaintManagerUI@DuiLib@@QAEHXZ @1544
    ?GetPointerIDByIndex@CPaintManagerUI@DuiLib@@QAEKH@Z @1545
    ?GetPointerIndex@CPaintManagerUI@DuiLib@@QAEHK@Z @1546
    ?GetPos@CControlUI@DuiLib@@UBEABUtagRECT@@XZ @1547
    ?GetPostPaintCount@CPaintManagerUI@DuiLib@@QBEHXZ @1548
    ?GetProperty@CWebBrowserUI@DuiLib@@SAJPAUIDispatch@@PA_WPAUtagVARIANT@@@Z @1549
    ?GetPushedImage@CButtonLayoutUI@DuiLib@@QAEPB_WXZ @1550
    ?GetPushedImage@CButtonUI@DuiLib@@QAEPB_WXZ @1551
    ?GetPushedImage@CComboUI@DuiLib@@QBEPB_WXZ @1552
    ?GetPushedImage@CListHeaderItemUI@DuiLib@@QBEPB_WXZ @1553
    ?GetPushedTextColor@CButtonUI@DuiLib@@QBEKXZ @1554
    ?GetRailDisabledImage@CScrollBarUI@DuiLib@@QAEPB_WXZ @1555
    ?GetRailHotImage@CScrollBarUI@DuiLib@@QAEPB_WXZ @1556
    ?GetRailNormalImage@CScrollBarUI@DuiLib@@QAEPB_WXZ @1557
    ?GetRailPushedImage@CScrollBarUI@DuiLib@@QAEPB_WXZ @1558
    ?GetRawTextWithEmojiSize@CRenderEngine@DuiLib@@SA?AUtagSIZE@@PAUHDC__@@PAVCPaintManagerUI@2@PB_WH@Z @1559
    ?GetReceiverAtIndex@ObserverImpl@DuiLib@@UAEPAVReceiverImplBase@2@H@Z @1560
    ?GetReceiverCount@ObserverImpl@DuiLib@@UAEHXZ @1561
    ?GetReceiverIndex@ObserverImpl@DuiLib@@UAEHPAVReceiverImplBase@2@@Z @1562
    ?GetRectAttribute@DuiLib@@YA?AUtagRECT@@PB_W@Z @1563
    ?GetRectHeight@DuiLib@@YAJABUtagRECT@@@Z @1564
    ?GetRectSize@DuiLib@@YA?AUtagSIZE@@ABUtagRECT@@@Z @1565
    ?GetRectWidth@DuiLib@@YAJABUtagRECT@@@Z @1566
    ?GetRegisterDragDropResult@CPaintManagerUI@DuiLib@@QAEJXZ @1567
    ?GetRelativePos@CControlUI@DuiLib@@UBE?AUtagTRelativePosUI@2@XZ @1568
    ?GetRender@CRichEditCustomerUI@DuiLib@@QAEPAVIRichEditRender@2@XZ @1569
    ?GetResId@CControlUI@DuiLib@@QAEIPB_W@Z @1570
    ?GetResourceDll@CPaintManagerUI@DuiLib@@SAPAUHINSTANCE__@@XZ @1571
    ?GetResourceID@WindowImplBase@DuiLib@@UBEPB_WXZ @1572
    ?GetResourcePath@CPaintManagerUI@DuiLib@@SAABVCDuiString@2@XZ @1573
    ?GetResourceString@DuiLib@@YAPB_WPB_W@Z @1574
    ?GetResourceType@WindowImplBase@DuiLib@@UBE?AW4UILIB_RESOURCETYPE@2@XZ @1575
    ?GetResourceZip@CPaintManagerUI@DuiLib@@SAABVCDuiString@2@XZ @1576
    ?GetResourceZipHandle@CPaintManagerUI@DuiLib@@SAPAXXZ @1577
    ?GetRightBorderSize@CControlUI@DuiLib@@QBEHXZ @1578
    ?GetRoot@CMarkup@DuiLib@@QAE?AVCMarkupNode@2@XZ @1579
    ?GetRoot@CPaintManagerUI@DuiLib@@QBEPAVCControlUI@2@XZ @1580
    ?GetRoundCorner@CPaintManagerUI@DuiLib@@QBE?AUtagSIZE@@XZ @1581
    ?GetScreenRect@DuiApi@@YA?AUtagRECT@@PAUHWND__@@@Z @1582
    ?GetScreenRect@MonitorAdapter@DuiLib@@QAE?AUtagRECT@@PAUHWND__@@@Z @1583
    ?GetScreenWorkRect@DuiApi@@YA?AUtagRECT@@PAUHWND__@@@Z @1584
    ?GetScreenWorkRect@MonitorAdapter@DuiLib@@QAE?AUtagRECT@@PAUHWND__@@@Z @1585
    ?GetScrollBarFloat@CScrollBarUI@DuiLib@@QBE_NXZ @1586
    ?GetScrollBarPadding@CScrollBarUI@DuiLib@@QBEHXZ @1587
    ?GetScrollBarProcRefCount@CListBodyUI@DuiLib@@IAEHXZ @1588
    ?GetScrollBarSize@CScrollBarUI@DuiLib@@QBEHXZ @1589
    ?GetScrollPos@CContainerUI@DuiLib@@UBE?AUtagSIZE@@XZ @1590
    ?GetScrollPos@CListUI@DuiLib@@UBE?AUtagSIZE@@XZ @1591
    ?GetScrollPos@CScrollBarUI@DuiLib@@QBEHXZ @1592
    ?GetScrollRange@CContainerUI@DuiLib@@UBE?AUtagSIZE@@XZ @1593
    ?GetScrollRange@CListUI@DuiLib@@UBE?AUtagSIZE@@XZ @1594
    ?GetScrollRange@CScrollBarUI@DuiLib@@QBEHXZ @1595
    ?GetScrollSelect@CListUI@DuiLib@@QAE_NXZ @1596
    ?GetSel@CRichEditUI@DuiLib@@QBEXAAJ0@Z @1597
    ?GetSel@CRichEditUI@DuiLib@@QBEXAAU_charrange@@@Z @1598
    ?GetSelItemHotTextColor@CTreeNodeUI@DuiLib@@QBEKXZ @1599
    ?GetSelItemTextColor@CTreeNodeUI@DuiLib@@QBEKXZ @1600
    ?GetSelText@CRichEditUI@DuiLib@@QBE?AVCDuiString@2@XZ @1601
    ?GetSelectBkColor@COptionUI@DuiLib@@QAEKXZ @1602
    ?GetSelectedBkColor2@CControlUI@DuiLib@@QBEKXZ @1603
    ?GetSelectedBkColor3@CControlUI@DuiLib@@QBEKXZ @1604
    ?GetSelectedBkColor@CControlUI@DuiLib@@QBEKXZ @1605
    ?GetSelectedCount@CListUI@DuiLib@@QAEHXZ @1606
    ?GetSelectedDisabledImage@COptionUI@DuiLib@@QAEPB_WXZ @1607
    ?GetSelectedFocusedImage@COptionUI@DuiLib@@QAEPB_WXZ @1608
    ?GetSelectedHotImage@COptionUI@DuiLib@@QAEPB_WXZ @1609
    ?GetSelectedImage@CControlUI@DuiLib@@QBEPB_WXZ @1610
    ?GetSelectedImage@COptionUI@DuiLib@@QAEPB_WXZ @1611
    ?GetSelectedIndexList@CListUI@DuiLib@@QAEPAVCStdValArray@2@XZ @1612
    ?GetSelectedItemBkColor@CComboUI@DuiLib@@QBEKXZ @1613
    ?GetSelectedItemBkColor@CListUI@DuiLib@@QBEKXZ @1614
    ?GetSelectedItemImage@CComboUI@DuiLib@@QBEPB_WXZ @1615
    ?GetSelectedItemImage@CListUI@DuiLib@@QBEPB_WXZ @1616
    ?GetSelectedItemTextColor@CComboUI@DuiLib@@QBEKXZ @1617
    ?GetSelectedItemTextColor@CListUI@DuiLib@@QBEKXZ @1618
    ?GetSelectedTextColor@CLabelUI@DuiLib@@QBEKXZ @1619
    ?GetSelectedTextColor@COptionUI@DuiLib@@QAEKXZ @1620
    ?GetSelectionCharFormat@CRichEditUI@DuiLib@@QBEKAAUCHARFORMAT2W@@@Z @1621
    ?GetSelectionType@CRichEditUI@DuiLib@@QBEGXZ @1622
    ?GetSepHeight@CVerticalLayoutUI@DuiLib@@QBEHXZ @1623
    ?GetSepImage@CListHeaderItemUI@DuiLib@@QBEPB_WXZ @1624
    ?GetSepWidth@CHorizontalLayoutUI@DuiLib@@QBEHXZ @1625
    ?GetSepWidth@CListHeaderItemUI@DuiLib@@QBEKXZ @1626
    ?GetShadow@CPaintManagerUI@DuiLib@@QAEPAVCShadowUI@2@XZ @1627
    ?GetShadowMap@CShadowUI@DuiLib@@KAAAV?$map@PAUHWND__@@PAVCShadowUI@DuiLib@@U?$less@PAUHWND__@@@std@@V?$allocator@U?$pair@QAUHWND__@@PAVCShadowUI@DuiLib@@@std@@@5@@std@@XZ @1628
    ?GetShadowOffset@CLabelUI@DuiLib@@QAE?AVRectF@Gdiplus@@XZ @1629
    ?GetShortcut@CControlUI@DuiLib@@UBE_WXZ @1630
    ?GetShowButton1@CScrollBarUI@DuiLib@@QAE_NXZ @1631
    ?GetShowButton2@CScrollBarUI@DuiLib@@QAE_NXZ @1632
    ?GetShowExplandIcon@CMenuElementUI@DuiLib@@QAE_NXZ @1633
    ?GetShrinkItemsTotalVal@CFlexLayoutUI@DuiLib@@AAEHXZ @1634
    ?GetSibling@CMarkupNode@DuiLib@@QAE?AV12@XZ @1635
    ?GetSiblingControls@CSplitterUI@DuiLib@@AAE_NAAPAVCControlUI@2@0@Z @1636
    ?GetSize@CStdIntArray@DuiLib@@QBEHXZ @1637
    ?GetSize@CStdPtrArray@DuiLib@@QBEHXZ @1638
    ?GetSize@CStdStringPtrMap@DuiLib@@QBEHXZ @1639
    ?GetSize@CStdValArray@DuiLib@@QBEHXZ @1640
    ?GetSizeAttribute@DuiLib@@YA?AUtagSIZE@@PB_W@Z @1641
    ?GetSizeBox@CPaintManagerUI@DuiLib@@QAEAAUtagRECT@@XZ @1642
    ?GetSplitterIndex@CHeaderControlUI@DuiLib@@AAEHPAVCSplitterUI@2@@Z @1643
    ?GetStandardFontInfo@CPaintManagerUI@DuiLib@@QAE?AUtagTFontInfo@2@H@Z @1644
    ?GetStringId@TagIDTranslator@globalization@@QAEIPB_W@Z @1645
    ?GetStringLoaders@IResLoaderManager@DuiLib@@UAEABV?$vector@V?$shared_ptr@VIStringLoader@DuiLib@@@std@@V?$allocator@V?$shared_ptr@VIStringLoader@DuiLib@@@std@@@2@@std@@XZ @1646
    ?GetStrokeColor@CLabelUI@DuiLib@@QAEKXZ @1647
    ?GetStyle@WindowImplBase@DuiLib@@UAEJXZ @1648
    ?GetSubControlFixedHeight@CContainerUI@DuiLib@@QAEHPB_W@Z @1649
    ?GetSubControlFixedWdith@CContainerUI@DuiLib@@QAEHPB_W@Z @1650
    ?GetSubControlText@CContainerUI@DuiLib@@QAE?AVCDuiString@2@PB_W@Z @1651
    ?GetSubControlUserData@CContainerUI@DuiLib@@QAE?BVCDuiString@2@PB_W@Z @1652
    ?GetSubControlsByClass@CPaintManagerUI@DuiLib@@QAEPAVCStdPtrArray@2@XZ @1653
    ?GetSubMenuItems@CMenuElementUI@DuiLib@@QAE?AVCStdPtrArray@2@XZ @1654
    ?GetSuperClassName@CWindowWnd@DuiLib@@MBEPB_WXZ @1655
    ?GetSystemDPIFactor@CDPIUtils@DuiLib@@SAHXZ @1656
    ?GetSystemMetrics@DuiApi@@YAHH@Z @1657
    ?GetTabOrder@CControlUI@DuiLib@@QBEHXZ @1658
    ?GetTag@CControlUI@DuiLib@@UBEIXZ @1659
    ?GetText@CComboUI@DuiLib@@UBE?AVCDuiString@2@XZ @1660
    ?GetText@CControlUI@DuiLib@@UBE?AVCDuiString@2@XZ @1661
    ?GetText@CLabelUI@DuiLib@@UBE?AVCDuiString@2@XZ @1662
    ?GetText@CListTextElementUI@DuiLib@@QBEPB_WH@Z @1663
    ?GetText@CRichEditUI@DuiLib@@UBE?AVCDuiString@2@XZ @1664
    ?GetTextCallback@CListUI@DuiLib@@UBEPAVIListCallbackUI@2@XZ @1665
    ?GetTextColor1@CLabelUI@DuiLib@@QAEKXZ @1666
    ?GetTextColor@CComboUI@DuiLib@@QAEKXZ @1667
    ?GetTextColor@CLabelUI@DuiLib@@QBEKXZ @1668
    ?GetTextColor@CListHeaderItemUI@DuiLib@@QBEKXZ @1669
    ?GetTextColor@CRichEditUI@DuiLib@@QAEKXZ @1670
    ?GetTextDrawWith@CPaintManagerUI@DuiLib@@QAEHHPB_WH@Z @1671
    ?GetTextDrawWith@CPaintManagerUI@DuiLib@@QAEHPAUHDC__@@PB_WH@Z @1672
    ?GetTextDrawWith@CPaintManagerUI@DuiLib@@QAEHPB_W0H@Z @1673
    ?GetTextExtentPoint32A@DuiApi@@YAHPAUHDC__@@PBDHPAUtagSIZE@@@Z @1674
    ?GetTextExtentPoint32W@DuiApi@@YAHPAUHDC__@@PB_WHPAUtagSIZE@@@Z @1675
    ?GetTextHost@CRichEditUI@DuiLib@@QAEPAVITextHost@@XZ @1676
    ?GetTextInRange@CRichEditUI@DuiLib@@QBE?AVCDuiString@2@JJ@Z @1677
    ?GetTextLength@CRichEditUI@DuiLib@@QBEJK@Z @1678
    ?GetTextPadding@CComboUI@DuiLib@@QBE?AUtagRECT@@XZ @1679
    ?GetTextPadding@CLabelUI@DuiLib@@QBE?AUtagRECT@@XZ @1680
    ?GetTextPadding@CListHeaderItemUI@DuiLib@@QBE?AUtagRECT@@XZ @1681
    ?GetTextPadding@CRichEditUI@DuiLib@@QBE?AUtagRECT@@XZ @1682
    ?GetTextRange@CRichEditUI@DuiLib@@QAEPAUITextRange@@HH@Z @1683
    ?GetTextRenderingHintAntiAlias@CLabelUI@DuiLib@@QAEHXZ @1684
    ?GetTextServices@CRichEditUI@DuiLib@@QAEPAVITextServices@@XZ @1685
    ?GetTextShadowColorA@CLabelUI@DuiLib@@QAEKXZ @1686
    ?GetTextShadowColorB@CLabelUI@DuiLib@@QAEKXZ @1687
    ?GetTextSize@CRenderEngine@DuiLib@@SA?AUtagSIZE@@PAUHDC__@@PAVCPaintManagerUI@2@PB_WHI@Z @1688
    ?GetTextSize@CRichEditUI@DuiLib@@QAE?AUtagSIZE@@XZ @1689
    ?GetTextSizeByGdiplus@CRenderEngine@DuiLib@@SA?AUtagSIZE@@PAVCPaintManagerUI@2@PB_WHABU3@@Z @1690
    ?GetTextSizeWithFontSize@CRenderEngine@DuiLib@@SA?AUtagSIZE@@PAUHDC__@@PAVCPaintManagerUI@2@PB_WH@Z @1691
    ?GetTextStyle@CLabelUI@DuiLib@@QBEIXZ @1692
    ?GetTextStyle@CListHeaderItemUI@DuiLib@@QBEKXZ @1693
    ?GetTextWidthByGdiplus@CRenderEngine@DuiLib@@SAHPAVCPaintManagerUI@2@PB_WHI@Z @1694
    ?GetTextWidthByGdiplusWithFontSize@CRenderEngine@DuiLib@@SAHPAVCPaintManagerUI@2@PB_WHI@Z @1695
    ?GetThumbDisabledImage@CScrollBarUI@DuiLib@@QAEPB_WXZ @1696
    ?GetThumbHotImage@CScrollBarUI@DuiLib@@QAEPB_WXZ @1697
    ?GetThumbHotImage@CSliderUI@DuiLib@@QBEPB_WXZ @1698
    ?GetThumbImage@CSliderUI@DuiLib@@QBEPB_WXZ @1699
    ?GetThumbMinLen@CScrollBarUI@DuiLib@@QBEHXZ @1700
    ?GetThumbNormalImage@CScrollBarUI@DuiLib@@QAEPB_WXZ @1701
    ?GetThumbPushedImage@CScrollBarUI@DuiLib@@QAEPB_WXZ @1702
    ?GetThumbPushedImage@CSliderUI@DuiLib@@QBEPB_WXZ @1703
    ?GetThumbRect@CHorizontalLayoutUI@DuiLib@@QBE?AUtagRECT@@_N@Z @1704
    ?GetThumbRect@CListHeaderItemUI@DuiLib@@QBE?AUtagRECT@@XZ @1705
    ?GetThumbRect@CSliderUI@DuiLib@@QBE?AUtagRECT@@XZ @1706
    ?GetThumbRect@CVerticalLayoutUI@DuiLib@@QBE?AUtagRECT@@_N@Z @1707
    ?GetTime@CDateTimeUI@DuiLib@@QAEAAU_SYSTEMTIME@@XZ @1708
    ?GetToolTip@CControlUI@DuiLib@@UBE?AVCDuiString@2@XZ @1709
    ?GetToolTip@CLabelUI@DuiLib@@UBE?AVCDuiString@2@XZ @1710
    ?GetToolTipInfo@CPaintManagerUI@DuiLib@@QAEPAXXZ @1711
    ?GetToolTipWidth@CControlUI@DuiLib@@UAEHXZ @1712
    ?GetTooltipWindow@CPaintManagerUI@DuiLib@@QBEPAUHWND__@@XZ @1713
    ?GetTopBorderSize@CControlUI@DuiLib@@QBEHXZ @1714
    ?GetTotalEstimateChildCount@CFlexLayoutUI@DuiLib@@AAEHXZ @1715
    ?GetTotalEstimateChildCount@CHorizontalLayoutUI@DuiLib@@IAEHXZ @1716
    ?GetTotalEstimateChildCount@CVerticalLayoutUI@DuiLib@@IAEHXZ @1717
    ?GetTouchInputInfo@CTouchUtils@DuiLib@@SAHPAUHTOUCHINPUT__@2@IPAUtagTOUCHINPUT@2@H@Z @1718
    ?GetTransShadow1@CLabelUI@DuiLib@@QAEHXZ @1719
    ?GetTransShadow@CLabelUI@DuiLib@@QAEHXZ @1720
    ?GetTransStroke@CLabelUI@DuiLib@@QAEHXZ @1721
    ?GetTransText1@CLabelUI@DuiLib@@QAEHXZ @1722
    ?GetTransText@CLabelUI@DuiLib@@QAEHXZ @1723
    ?GetTransparent@CPaintManagerUI@DuiLib@@QBEHXZ @1724
    ?GetTreeIndex@CTreeNodeUI@DuiLib@@QAEHXZ @1725
    ?GetTreeNodeHoriznotal@CTreeNodeUI@DuiLib@@QBEPAVCHorizontalLayoutUI@2@XZ @1726
    ?GetTreeNodes@CTreeNodeUI@DuiLib@@QAE?AVCStdPtrArray@2@XZ @1727
    ?GetTreeView@CTreeNodeUI@DuiLib@@QAEPAVCTreeViewUI@2@XZ @1728
    ?GetTxDropTarget@CRichEditUI@DuiLib@@QAEPAUIDropTarget@@XZ @1729
    ?GetTypeInfo@CDefaultAccessibility@DuiLib@@UAGJIKPAPAUITypeInfo@@@Z @1730
    ?GetTypeInfo@CWebBrowserUI@DuiLib@@UAGJIKPAPAUITypeInfo@@@Z @1731
    ?GetTypeInfoCount@CDefaultAccessibility@DuiLib@@UAGJPAI@Z @1732
    ?GetTypeInfoCount@CWebBrowserUI@DuiLib@@UAGJPAI@Z @1733
    ?GetUnableDisplayTips@EmotionManager@DuiLib@@QAEPB_WXZ @1734
    ?GetUnknowAttribute@CControlUI@DuiLib@@UAE?AVCDuiString@2@PB_W@Z @1735
    ?GetUpdateRect@DuiApi@@YAHPAUHWND__@@PAUtagRECT@@H@Z @1736
    ?GetUserData@CControlUI@DuiLib@@UAEABVCDuiString@2@XZ @1737
    ?GetValue@CMarkupNode@DuiLib@@QBEPB_WXZ @1738
    ?GetValue@CProgressUI@DuiLib@@QBEHXZ @1739
    ?GetVerticalScrollBar@CContainerUI@DuiLib@@UBEPAVCScrollBarUI@2@XZ @1740
    ?GetVerticalScrollBar@CListUI@DuiLib@@UBEPAVCScrollBarUI@2@XZ @1741
    ?GetViewHeight@CRichEditUI@DuiLib@@QAEHXZ @1742
    ?GetVirtualSeparatorRect@CHorizontalLayoutUI@DuiLib@@UAE?AUtagRECT@@XZ @1743
    ?GetVirtualSeparatorRect@CVerticalLayoutUI@DuiLib@@UAE?AUtagRECT@@XZ @1744
    ?GetVirtualWnd@CControlUI@DuiLib@@QBE?AVCDuiString@2@XZ @1745
    ?GetVisibleCheckBtn@CTreeNodeUI@DuiLib@@QAE_NXZ @1746
    ?GetVisibleCheckBtn@CTreeViewUI@DuiLib@@UAE_NXZ @1747
    ?GetVisibleFolderBtn@CTreeNodeUI@DuiLib@@QAE_NXZ @1748
    ?GetVisibleFolderBtn@CTreeViewUI@DuiLib@@UAE_NXZ @1749
    ?GetVisibleTag@CTreeNodeUI@DuiLib@@QAE_NXZ @1750
    ?GetWebBrowser2@CWebBrowserUI@DuiLib@@QAEPAUIWebBrowser2@@XZ @1751
    ?GetWidth@CControlUI@DuiLib@@UBEHXZ @1752
    ?GetWidth@CDuiRect@DuiLib@@QBEHXZ @1753
    ?GetWidthType@CControlUI@DuiLib@@UBE?AW4MeasureType@2@XZ @1754
    ?GetWidthType@CEditUI@DuiLib@@UBE?AW4MeasureType@2@XZ @1755
    ?GetWidthType@CLabelUI@DuiLib@@UBE?AW4MeasureType@2@XZ @1756
    ?GetWidthType@CTextUI@DuiLib@@UBE?AW4MeasureType@2@XZ @1757
    ?GetWinStyle@CRichEditUI@DuiLib@@QAEJXZ @1758
    ?GetWindowClassName@CMenuWnd@DuiLib@@UBEPB_WXZ @1759
    ?GetWindowDPIFactor@CDPIUtils@DuiLib@@SAHPAUHWND__@@@Z @1760
    ?GetWindowIcon@CWindowWnd@DuiLib@@MAEPAUHICON__@@XZ @1761
    ?GetWindowManager@CMenuWnd@DuiLib@@UAEPAVIWindowManager@2@XZ @1762
    ?GetWindowManager@CWindowWnd@DuiLib@@UAEPAVIWindowManager@2@XZ @1763
    ?GetWindowManager@WindowImplBase@DuiLib@@UAEPAVIWindowManager@2@XZ @1764
    ?GetWindowRect@DuiApi@@YAHPAUHWND__@@PAUtagRECT@@@Z @1765
    ?GetWindowStatus@WindowImplBase@DuiLib@@QAEHXZ @1766
    ?GetWindowStyls@CEditUI@DuiLib@@QBEHXZ @1767
    ?GetWindowXDPIByDeviceCaps@CDPIUtils@DuiLib@@CAHPAUHWND__@@@Z @1768
    ?GetWordWrap@CRichEditUI@DuiLib@@QAE_NXZ @1769
    ?GetX@CControlUI@DuiLib@@UBEHXZ @1770
    ?GetY@CControlUI@DuiLib@@UBEHXZ @1771
    ?GetZIPFileName@WindowImplBase@DuiLib@@UBE?AVCDuiString@2@XZ @1772
    ?GetZoom@CRichEditUI@DuiLib@@QBE_NAAH0@Z @1773
    ?GoBack@CWebBrowserUI@DuiLib@@QAEXXZ @1774
    ?GoForward@CWebBrowserUI@DuiLib@@QAEXXZ @1775
    ?HandleCustomMessage@WindowImplBase@DuiLib@@UAEJIIJAAH@Z @1776
    ?HandleDblClick@CHeaderControlUI@DuiLib@@AAEJIIJAA_N@Z @1777
    ?HandleKeyboardMessage@CMenuWnd@DuiLib@@IAEXIIJAA_N0@Z @1778
    ?HandleLButtonDown@CHeaderControlUI@DuiLib@@AAEJIIJAA_N@Z @1779
    ?HandleLButtonDown@CSplitterUI@DuiLib@@AAE_NIJAAJ@Z @1780
    ?HandleLButtonUp@CHeaderControlUI@DuiLib@@AAEJIIJAA_N@Z @1781
    ?HandleLButtonUp@CSplitterUI@DuiLib@@AAE_NIJAAJ@Z @1782
    ?HandleMenuItemClick@CMenuElementUI@DuiLib@@IAEXXZ @1783
    ?HandleMessage@CMenuWnd@DuiLib@@UAEJIIJ@Z @1784
    ?HandleMessage@CSplitterUI@DuiLib@@AAE_NIIJAAJ@Z @1785
    ?HandleMessage@CWindowWnd@DuiLib@@MAEJIIJ@Z @1786
    ?HandleMessage@WindowImplBase@DuiLib@@UAEJIIJ@Z @1787
    ?HandleMouseMove@CSplitterUI@DuiLib@@AAE_NIJAAJ@Z @1788
    ?HandleSelectItem@CListUI@DuiLib@@IAE_NH_N0H0@Z @1789
    ?HandleSetCursor@CSplitterUI@DuiLib@@AAE_NIJAAJ@Z @1790
    ?HandleSplitterMessage@CPaintManagerUI@DuiLib@@AAE_NIIJAAJ@Z @1791
    ?HasAttribute@CMarkupNode@DuiLib@@QAE_NPB_W@Z @1792
    ?HasAttributes@CMarkupNode@DuiLib@@QAE_NXZ @1793
    ?HasChildren@CMarkupNode@DuiLib@@QBE_NXZ @1794
    ?HasFilter@CRenderEngine@DuiLib@@CA_NAAVCDuiString@2@@Z @1795
    ?HasGrowItems@CFlexLayoutUI@DuiLib@@AAE_NXZ @1796
    ?HasImageFilter@CRenderEngine@DuiLib@@CA_NABVCDuiString@2@@Z @1797
    ?HasPointer@CPaintManagerUI@DuiLib@@QAE_NK@Z @1798
    ?HasSelText@CEditUI@DuiLib@@QAE_NXZ @1799
    ?HasSiblings@CMarkupNode@DuiLib@@QBE_NXZ @1800
    ?HideSelection@CRichEditUI@DuiLib@@QAEX_N0@Z @1801
    ?HideUI@CWebBrowserUI@DuiLib@@UAGJXZ @1802
    ?HomeLeft@CContainerUI@DuiLib@@UAEXXZ @1803
    ?HomeLeft@CListUI@DuiLib@@UAEXXZ @1804
    ?HomeLeft@CRichEditUI@DuiLib@@UAEXXZ @1805
    ?HomeUp@CContainerUI@DuiLib@@UAEXXZ @1806
    ?HomeUp@CListUI@DuiLib@@UAEXXZ @1807
    ?HomeUp@CRichEditUI@DuiLib@@UAEXXZ @1808
    ?HookMouse@CMenuWnd@DuiLib@@IAEXXZ @1809
    ?Inflate@CDuiRect@DuiLib@@QAEXHH@Z @1810
    ?InheritContraintInLocateStep@CControlUI@DuiLib@@UAE_NXZ @1811
    ?Init@CChildLayoutUI@DuiLib@@UAEXXZ @1812
    ?Init@CControlUI@DuiLib@@UAEXXZ @1813
    ?Init@CMenuWnd@DuiLib@@QAEXPAVCMenuElementUI@2@VSTRINGorID@2@UtagPOINT@@PAVCPaintManagerUI@2@PAV?$map@VCDuiString@DuiLib@@_NU?$less@VCDuiString@DuiLib@@@std@@V?$allocator@U?$pair@$$CBVCDuiString@DuiLib@@_N@std@@@4@@std@@K@Z @1814
    ?Init@CPaintManagerUI@DuiLib@@QAEXPAUHWND__@@@Z @1815
    ?InitControls@CPaintManagerUI@DuiLib@@QAE_NPAVCControlUI@2@0@Z @1816
    ?InitDefaultFont@CPaintManagerUI@DuiLib@@AAEXXZ @1817
    ?InitDragDropHelper@CPaintManagerUI@DuiLib@@AAEXXZ @1818
    ?InitEmojiMap@Emoji@DuiLib@@CA_NXZ @1819
    ?InitGifImage@CGifAnimUI@DuiLib@@AAEXXZ @1820
    ?InitHostAccessor@CRichEditCustomerUI@DuiLib@@IAEXXZ @1821
    ?InitOwnerMessageFilter@CMenuWnd@DuiLib@@IAEXXZ @1822
    ?InitSplitter@CSplitterUI@DuiLib@@AAEXXZ @1823
    ?InitStringData@TagIDTranslator@globalization@@QAEXXZ @1824
    ?InitWindow@WindowImplBase@DuiLib@@UAEXXZ @1825
    ?Initialize@CShadowUI@DuiLib@@SA_NPAUHINSTANCE__@@@Z @1826
    ?InnerQueryInterface@CDefaultAccessibility@DuiLib@@MAEJABU_GUID@@PAPAX@Z @1827
    ?InnerSetPosWhenChangeItemColumns@CTileLayoutUI@DuiLib@@IAEXUtagRECT@@@Z @1828
    ?Insert@CStdStringPtrMap@DuiLib@@QAE_NPB_WPAX@Z @1829
    ?InsertAt@CStdIntArray@DuiLib@@QAE_NHH@Z @1830
    ?InsertAt@CStdPtrArray@DuiLib@@QAE_NHPAX@Z @1831
    ?InsertFile@CRichEditUI@DuiLib@@QAE_NPB_W@Z @1832
    ?InsertGIFImage@CRichEditUI@DuiLib@@QAE_NPB_WK@Z @1833
    ?InsertHBitmap@CRichEditUI@DuiLib@@QAE_NPAUHBITMAP__@@K@Z @1834
    ?InsertNotGIFImage@CRichEditUI@DuiLib@@QAE_NPB_WK@Z @1835
    ?InsertText@CRichEditUI@DuiLib@@QAEHJPB_W_N@Z @1836
    ?Invalidate@CControlUI@DuiLib@@QAEXXZ @1837
    ?Invalidate@CListContainerElementUI@DuiLib@@QAEXXZ @1838
    ?Invalidate@CListElementUI@DuiLib@@QAEXXZ @1839
    ?Invalidate@CPaintManagerUI@DuiLib@@QAEXAAUtagRECT@@@Z @1840
    ?Invalidate@CTreeNodeUI@DuiLib@@QAEXXZ @1841
    ?InvalidateForDPI120@CControlUI@DuiLib@@QAEXXZ @1842
    ?InvalidateRect@DuiApi@@YAHPAUHWND__@@PBUtagRECT@@H@Z @1843
    ?Invoke@CDefaultAccessibility@DuiLib@@UAGJJABU_GUID@@KGPAUtagDISPPARAMS@@PAUtagVARIANT@@PAUtagEXCEPINFO@@PAI@Z @1844
    ?Invoke@CWebBrowserUI@DuiLib@@UAGJJABU_GUID@@KGPAUtagDISPPARAMS@@PAUtagVARIANT@@PAUtagEXCEPINFO@@PAI@Z @1845
    ?InvokeMethod@CWebBrowserUI@DuiLib@@SAJPAUIDispatch@@PA_WPAUtagVARIANT@@2H@Z @1846
    ?IsActivate@CComboUI@DuiLib@@QAE_NXZ @1847
    ?IsAlternateBk@CComboUI@DuiLib@@QBE_NXZ @1848
    ?IsAlternateBk@CListUI@DuiLib@@QBE_NXZ @1849
    ?IsAutoChangeBG@CPaintManagerUI@DuiLib@@QAE_NXZ @1850
    ?IsAutoDestroy@CContainerUI@DuiLib@@UBE_NXZ @1851
    ?IsAutoNavigation@CWebBrowserUI@DuiLib@@QAE_NXZ @1852
    ?IsAutoPlay@CGifAnimUI@DuiLib@@QBE_NXZ @1853
    ?IsAutoResizeByText@CButtonUI@DuiLib@@QAE_NXZ @1854
    ?IsAutoSize@CGifAnimUI@DuiLib@@QBE_NXZ @1855
    ?IsCachedResourceZip@CPaintManagerUI@DuiLib@@SA_NXZ @1856
    ?IsCapture@CSplitterUI@DuiLib@@AAE_NXZ @1857
    ?IsCaptured@CPaintManagerUI@DuiLib@@QAE_NXZ @1858
    ?IsCaptured@CRichEditUI@DuiLib@@QAE_NXZ @1859
    ?IsCheckBoxSelected@CTreeNodeUI@DuiLib@@QBE_NXZ @1860
    ?IsChinese@CEditUI@DuiLib@@QAE_N_W@Z @1861
    ?IsColorHSL@CControlUI@DuiLib@@QBE_NXZ @1862
    ?IsColumnReverseMode@CFlexLayoutUI@DuiLib@@AAE_NXZ @1863
    ?IsContextMenuUsed@CControlUI@DuiLib@@UBE_NXZ @1864
    ?IsCurrencyFormat@CRichEditUI@DuiLib@@QAE_NXZ @1865
    ?IsDelayCreate@CActiveXUI@DuiLib@@QBE_NXZ @1866
    ?IsDelayedDestroy@CContainerUI@DuiLib@@UBE_NXZ @1867
    ?IsDragable@CListHeaderItemUI@DuiLib@@QBE_NXZ @1868
    ?IsDrawMemBufferNeeded@CRichEditCustomerUI@DuiLib@@IAE_NXZ @1869
    ?IsDropTargetEnable@CControlUI@DuiLib@@UAE_NXZ @1870
    ?IsEmpty@CDuiString@DuiLib@@QBE_NXZ @1871
    ?IsEmpty@CStdIntArray@DuiLib@@QBE_NXZ @1872
    ?IsEmpty@CStdPtrArray@DuiLib@@QBE_NXZ @1873
    ?IsEmpty@CStdValArray@DuiLib@@QBE_NXZ @1874
    ?IsEnabled@CControlUI@DuiLib@@UBE_NXZ @1875
    ?IsEnabledTabStop@CContainerUI@DuiLib@@UBE_NXZ @1876
    ?IsEnabledTabStop@CControlUI@DuiLib@@UBE_NXZ @1877
    ?IsExpanded@CListContainerElementUI@DuiLib@@UBE_NXZ @1878
    ?IsExpanded@CListElementUI@DuiLib@@UBE_NXZ @1879
    ?IsExpanded@CTreeNodeUI@DuiLib@@UBE_NXZ @1880
    ?IsFlexGrowValid@CFlexLayoutUI@DuiLib@@AAE_NHABUtagRECT@@AAM@Z @1881
    ?IsFlexShrinkValid@CFlexLayoutUI@DuiLib@@AAE_NHABUtagRECT@@AAM@Z @1882
    ?IsFlexSpaceAlignContent@CFlexLayoutUI@DuiLib@@AAE_NXZ @1883
    ?IsFlexSpaceJustifyContent@CFlexLayoutUI@DuiLib@@AAE_NXZ @1884
    ?IsFloat@CControlUI@DuiLib@@UBE_NXZ @1885
    ?IsFloatAbsolute@CControlUI@DuiLib@@UAE_NXZ @1886
    ?IsFocused@CControlUI@DuiLib@@UBE_NXZ @1887
    ?IsFocused@CEditUI@DuiLib@@UBE_NXZ @1888
    ?IsFontRevise@CPaintManagerUI@DuiLib@@QAE_NPB_W@Z @1889
    ?IsForceUpdatingScrollBar@CListUI@DuiLib@@QAE_NXZ @1890
    ?IsHasChild@CTreeNodeUI@DuiLib@@QBE_NXZ @1891
    ?IsHorizontal@CProgressUI@DuiLib@@QAE_NXZ @1892
    ?IsHorizontal@CScrollBarUI@DuiLib@@QAE_NXZ @1893
    ?IsHorizontalScrollable@CContainerUI@DuiLib@@IAE_NXZ @1894
    ?IsHover@CControlUI@DuiLib@@UBE_NXZ @1895
    ?IsImageHasFilter@ChatViewImageFilter@DuiLib@@UAE_NABVCDuiString@2@PAVCPaintManagerUI@2@@Z @1896
    ?IsInDrag@CRichEditUI@DuiLib@@QAE_NXZ @1897
    ?IsInTouchMode@CPaintManagerUI@DuiLib@@QAE_NXZ @1898
    ?IsItemShowHtml@CComboUI@DuiLib@@QAE_NXZ @1899
    ?IsItemShowHtml@CListUI@DuiLib@@QAE_NXZ @1900
    ?IsKeyboardEnabled@CControlUI@DuiLib@@UBE_NXZ @1901
    ?IsLayoutFinished@CPaintManagerUI@DuiLib@@QAE_NXZ @1902
    ?IsLockRenderLayout@CRichEditUI@DuiLib@@UAE_NXZ @1903
    ?IsLoopEnabled@CGifAnimUI@DuiLib@@QBE_NXZ @1904
    ?IsMainAxisExpand@CFlexLayoutUI@DuiLib@@AAE_NPAVCControlUI@2@@Z @1905
    ?IsMainAxisRow@CFlexLayoutUI@DuiLib@@AAE_NXZ @1906
    ?IsMeasureNeeded@CControlUI@DuiLib@@QBE_NUtagSIZE@@ABVEstimateContraint@2@@Z @1907
    ?IsMoneyNumberOnly@CEditUI@DuiLib@@QBE_NXZ @1908
    ?IsMouseChildEnabled@CContainerUI@DuiLib@@UBE_NXZ @1909
    ?IsMouseEnabled@CControlUI@DuiLib@@UBE_NXZ @1910
    ?IsMsgFromTouch@CTouchUtils@DuiLib@@SA_NXZ @1911
    ?IsNormalDPI@DuiApi@@YAHXZ @1912
    ?IsNull@CDuiRect@DuiLib@@QBE_NXZ @1913
    ?IsNumberOnly@CEditUI@DuiLib@@QBE_NXZ @1914
    ?IsPasswordMode@CEditUI@DuiLib@@QBE_NXZ @1915
    ?IsPhoneNumberOnly@CEditUI@DuiLib@@QBE_NXZ @1916
    ?IsPointInMenu@CMenuWnd@DuiLib@@SA_NABUtagPOINT@@@Z @1917
    ?IsPointInSelection@CRichEditUI@DuiLib@@QAE_NABUtagPOINT@@@Z @1918
    ?IsPointNearSplitter@CSplitterUI@DuiLib@@AAE_NABUtagPOINT@@@Z @1919
    ?IsReadOnly@CDateTimeUI@DuiLib@@QBE_NXZ @1920
    ?IsReadOnly@CEditUI@DuiLib@@QBE_NXZ @1921
    ?IsReadOnly@CRichEditUI@DuiLib@@QAE_NXZ @1922
    ?IsRelativePos@CControlUI@DuiLib@@UBE_NXZ @1923
    ?IsRich@CRichEditUI@DuiLib@@QAE_NXZ @1924
    ?IsRowReverseMode@CFlexLayoutUI@DuiLib@@AAE_NXZ @1925
    ?IsSamePoint@DuiLib@@YA_NABUtagPOINT@@0@Z @1926
    ?IsSameSize@DuiLib@@YA_NABUtagSIZE@@0@Z @1927
    ?IsScrollWheelEnabled@CComboUI@DuiLib@@QAE_NXZ @1928
    ?IsSelect@CRichEditUI@DuiLib@@QAE_NPBUIOleObject@@@Z @1929
    ?IsSelected@CControlUI@DuiLib@@UBE_NXZ @1930
    ?IsSelected@CListContainerElementUI@DuiLib@@UBE_NXZ @1931
    ?IsSelected@CListElementUI@DuiLib@@UBE_NXZ @1932
    ?IsSelfSelected@CControlUI@DuiLib@@UBE_NXZ @1933
    ?IsSelfVisible@CControlUI@DuiLib@@UBE_NXZ @1934
    ?IsSepImmMode@CHorizontalLayoutUI@DuiLib@@QBE_NXZ @1935
    ?IsSepImmMode@CVerticalLayoutUI@DuiLib@@QBE_NXZ @1936
    ?IsShowEmoji@CLabelUI@DuiLib@@QAE_NXZ @1937
    ?IsShowHtml@CLabelUI@DuiLib@@QAE_NXZ @1938
    ?IsShowHtml@CListHeaderItemUI@DuiLib@@QAE_NXZ @1939
    ?IsShowModal@CWindowWnd@DuiLib@@QAE_NXZ @1940
    ?IsShowShadow@CShadowUI@DuiLib@@QBE_NXZ @1941
    ?IsShowUpdateRect@CPaintManagerUI@DuiLib@@QBE_NXZ @1942
    ?IsSpaceBetweenMode@CFlexLayoutUI@DuiLib@@AAE_NXZ @1943
    ?IsSpaceBetweenOrSpaceAroundEffect@CFlexLayoutUI@DuiLib@@AAE_NMM@Z @1944
    ?IsStretchForeImage@CProgressUI@DuiLib@@QAE_NXZ @1945
    ?IsTouchWindow@CTouchUtils@DuiLib@@SAHPAUHWND__@@PAK@Z @1946
    ?IsUpdateNeeded@CControlUI@DuiLib@@QBE_NXZ @1947
    ?IsValid@CDialogBuilder@DuiLib@@QBE_NXZ @1948
    ?IsValid@CMarkup@DuiLib@@QBE_NXZ @1949
    ?IsValid@CMarkupNode@DuiLib@@QBE_NXZ @1950
    ?IsValidEmoji@Emoji@DuiLib@@SA_NABV?$vector@IV?$allocator@I@std@@@std@@AAVEmojiIndex@2@@Z @1951
    ?IsVerticalScrollable@CContainerUI@DuiLib@@IAE_NXZ @1952
    ?IsVisible@CControlUI@DuiLib@@UBE_NXZ @1953
    ?IsWantCtrlReturn@CRichEditUI@DuiLib@@QAE_NXZ @1954
    ?IsWantReturn@CRichEditUI@DuiLib@@QAE_NXZ @1955
    ?IsWantTab@CRichEditUI@DuiLib@@QAE_NXZ @1956
    ?IsZeroRect@DuiLib@@YA_NABUtagRECT@@@Z @1957
    ?IsZeroSize@DuiLib@@YA_NABUtagSIZE@@@Z @1958
    ?ItemComareFunc@CListBodyUI@DuiLib@@IAAHPBX0@Z @1959
    ?ItemComareFunc@CListBodyUI@DuiLib@@KAHPAXPBX1@Z @1960
    ?Join@CDuiRect@DuiLib@@QAEXABUtagRECT@@@Z @1961
    ?KillTimer@CPaintManagerUI@DuiLib@@QAEXPAVCControlUI@2@@Z @1962
    ?KillTimer@CPaintManagerUI@DuiLib@@QAE_NPAVCControlUI@2@I@Z @1963
    ?Left@CDuiString@DuiLib@@QBE?AV12@H@Z @1964
    ?LeftEdgeWindow@CWindowWnd@DuiLib@@QAEXHH@Z @1965
    ?LineDown@CContainerUI@DuiLib@@UAEXXZ @1966
    ?LineDown@CListUI@DuiLib@@UAEXXZ @1967
    ?LineDown@CRichEditUI@DuiLib@@UAEXXZ @1968
    ?LineFromChar@CRichEditUI@DuiLib@@QBEJJ@Z @1969
    ?LineIndex@CRichEditUI@DuiLib@@QBEHH@Z @1970
    ?LineLeft@CContainerUI@DuiLib@@UAEXXZ @1971
    ?LineLeft@CListUI@DuiLib@@UAEXXZ @1972
    ?LineLeft@CRichEditUI@DuiLib@@UAEXXZ @1973
    ?LineLength@CRichEditUI@DuiLib@@QBEHH@Z @1974
    ?LineRight@CContainerUI@DuiLib@@UAEXXZ @1975
    ?LineRight@CListUI@DuiLib@@UAEXXZ @1976
    ?LineRight@CRichEditUI@DuiLib@@UAEXXZ @1977
    ?LineScroll@CRichEditUI@DuiLib@@QAE_NHH@Z @1978
    ?LineTo@DuiApi@@YAHPAUHDC__@@HH@Z @1979
    ?LineUp@CContainerUI@DuiLib@@UAEXXZ @1980
    ?LineUp@CListUI@DuiLib@@UAEXXZ @1981
    ?LineUp@CRichEditUI@DuiLib@@UAEXXZ @1982
    ?Load@CDialogBuilder@DuiLib@@AAE_NXZ @1983
    ?Load@CMarkup@DuiLib@@QAE_NPB_W@Z @1984
    ?LoadConfigFile@EmotionList@DuiLib@@QAEHXZ @1985
    ?LoadContent@CDialogBuilder@DuiLib@@AAE_NABV?$basic_string@_WU?$char_traits@_W@std@@V?$allocator@_W@2@@std@@@Z @1986
    ?LoadCursorR@CResManager@DuiLib@@SAPAUHICON__@@PB_W@Z @1987
    ?LoadCursorR@IResLoader@DuiLib@@UAEPAUHICON__@@PB_W@Z @1988
    ?LoadData@CResManager@DuiLib@@SA?AV?$shared_ptr@VTResData@DuiLib@@@std@@PB_WH@Z @1989
    ?LoadData@IResLoader@DuiLib@@UAE?AV?$shared_ptr@VTResData@DuiLib@@@std@@PB_W0@Z @1990
    ?LoadEmojiEmotionCache@ChatViewImageFilter@DuiLib@@IAEXXZ @1991
    ?LoadEmotionCache@ChatViewImageFilter@DuiLib@@IAEXXZ @1992
    ?LoadGifFromFile@CGifAnimUI@DuiLib@@AAE?AV?$shared_ptr@VImage@Gdiplus@@@std@@PB_W@Z @1993
    ?LoadIconR@CResManager@DuiLib@@SAPAUHICON__@@PB_WW4ICON_SIZE@2@@Z @1994
    ?LoadIconR@IResLoader@DuiLib@@UAEPAUHICON__@@PB_WABUtagSIZE@@@Z @1995
    ?LoadImageR@CControlUI@DuiLib@@QAE?AV?$shared_ptr@VImage@Gdiplus@@@std@@PB_W@Z @1996
    ?LoadImageR@CResManager@DuiLib@@SA?AV?$shared_ptr@VImage@Gdiplus@@@std@@PB_WH_N@Z @1997
    ?LoadImageR@IResLoader@DuiLib@@UAE?AV?$shared_ptr@VImage@Gdiplus@@@std@@PB_W0@Z @1998
    ?LoadImageR@WindowImplBase@DuiLib@@QAE?AV?$shared_ptr@VImage@Gdiplus@@@std@@PB_W@Z @1999
    ?LoadNormalEmotionCache@ChatViewImageFilter@DuiLib@@IAEXXZ @2000
    ?LoadPlugin@CPaintManagerUI@DuiLib@@SA_NP6APAVCControlUI@2@PB_W@Z@Z @2001
    ?LoadPlugin@CPaintManagerUI@DuiLib@@SA_NPB_W@Z @2002
    ?LoadStringR@CResManager@DuiLib@@SA?AV?$basic_string@_WU?$char_traits@_W@std@@V?$allocator@_W@2@@std@@PB_W@Z @2003
    ?LoadStringR@IStringLoader@DuiLib@@UAE?AU?$pair@_NV?$basic_string@_WU?$char_traits@_W@std@@V?$allocator@_W@2@@std@@@std@@GPB_W@Z @2004
    ?LoadStringR@IStringLoader@DuiLib@@UAE?AU?$pair@_NV?$basic_string@_WU?$char_traits@_W@std@@V?$allocator@_W@2@@std@@@std@@PB_W@Z @2005
    ?LoadStringW@CDuiString@DuiLib@@QAEHI@Z @2006
    ?LoadSystemFontList@FontManager@DuiLib@@SA?AV?$set@VCDuiString@DuiLib@@U?$less@VCDuiString@DuiLib@@@std@@V?$allocator@VCDuiString@DuiLib@@@4@@std@@E@Z @2007
    ?LoadXML@CResManager@DuiLib@@SA?AV?$basic_string@_WU?$char_traits@_W@std@@V?$allocator@_W@2@@std@@PB_WH@Z @2008
    ?LoadXML@IResLoader@DuiLib@@UAE?AV?$basic_string@_WU?$char_traits@_W@std@@V?$allocator@_W@2@@std@@PB_W@Z @2009
    ?LockRenderLayout@CRichEditUI@DuiLib@@UAEXXZ @2010
    ?LoopDispatch@CNotifyPump@DuiLib@@QAE_NAAUtagTNotifyUI@2@@Z @2011
    ?MakeLower@CDuiString@DuiLib@@QAEXXZ @2012
    ?MakeRoundCornerPath@CControlUI@DuiLib@@IAEXXZ @2013
    ?MakeShadow@CShadowUI@DuiLib@@IAEXPAIPAUHWND__@@PAUtagRECT@@@Z @2014
    ?MakeUpper@CDuiString@DuiLib@@QAEXXZ @2015
    ?MapWindowPoints@DuiApi@@YAHPAUHWND__@@0PAUtagPOINT@@I@Z @2016
    ?MapWindowRectEx@DuiApi@@YAHPAUHWND__@@0PAUtagRECT@@@Z @2017
    ?MessageHandler@CActiveXUI@DuiLib@@UAEJIIJAA_N@Z @2018
    ?MessageHandler@CContainerUI@DuiLib@@MAEJIIJAA_N@Z @2019
    ?MessageHandler@CHeaderControlUI@DuiLib@@UAEJIIJAA_N@Z @2020
    ?MessageHandler@CPaintManagerUI@DuiLib@@QAE_NIIJAAJ@Z @2021
    ?MessageHandler@CRichEditCustomerUI@DuiLib@@UAEJIIJAA_N@Z @2022
    ?MessageHandler@CRichEditUI@DuiLib@@UAEJIIJAA_N@Z @2023
    ?MessageHandler@WindowImplBase@DuiLib@@UAEJIIJAA_N@Z @2024
    ?MessageLoop@CPaintManagerUI@DuiLib@@SAXXZ @2025
    ?Mid@CDuiString@DuiLib@@QBE?AV12@HH@Z @2026
    ?ModalMessageLoop@CWindowWnd@DuiLib@@KAIPAV12@@Z @2027
    ?MoveToEx@DuiApi@@YAHPAUHDC__@@HHPAUtagPOINT@@@Z @2028
    ?MoveWindow@DuiApi@@YAHPAUHWND__@@HHHHH@Z @2029
    ?Navigate2@CWebBrowserUI@DuiLib@@QAEXPB_W@Z @2030
    ?NavigateComplete2@CWebBrowserUI@DuiLib@@IAEXPAUIDispatch@@AAPAUtagVARIANT@@@Z @2031
    ?NavigateError@CWebBrowserUI@DuiLib@@IAEXPAUIDispatch@@AAPAUtagVARIANT@@11AAPAF@Z @2032
    ?NavigateHomePage@CWebBrowserUI@DuiLib@@QAEXXZ @2033
    ?NavigateUrl@CWebBrowserUI@DuiLib@@QAEXPB_W@Z @2034
    ?NeedAdjustScroller@CContainerUI@DuiLib@@QAE_NXZ @2035
    ?NeedMeasure@CControlUI@DuiLib@@QAEXXZ @2036
    ?NeedOpenURLSpecially@CRichEditUI@DuiLib@@QAE_NXZ @2037
    ?NeedParentUpdate@CControlUI@DuiLib@@QAEXXZ @2038
    ?NeedUpdate@CControlUI@DuiLib@@QAEXXZ @2039
    ?NeedUpdate@CPaintManagerUI@DuiLib@@QAEXAAUtagRECT@@@Z @2040
    ?NeedUpdateForDPI120@CControlUI@DuiLib@@QAEXXZ @2041
    ?NewWindow3@CWebBrowserUI@DuiLib@@IAEXPAPAUIDispatch@@AAPAFKPA_W2@Z @2042
    ?Normalize@CDuiRect@DuiLib@@QAEXXZ @2043
    ?Notify@CMenuWnd@DuiLib@@UAEXAAUtagTNotifyUI@2@@Z @2044
    ?Notify@CTreeViewUI@DuiLib@@UAEXAAUtagTNotifyUI@2@@Z @2045
    ?Notify@WindowImplBase@DuiLib@@UAEXAAUtagTNotifyUI@2@@Z @2046
    ?NotifyColumnClick@CHeaderControlUI@DuiLib@@AAEXH@Z @2047
    ?NotifyColumnDblClick@CHeaderControlUI@DuiLib@@AAEXH@Z @2048
    ?NotifyColumnResize@CHeaderControlUI@DuiLib@@AAEXH@Z @2049
    ?NotifyPositionChanged@CSplitterUI@DuiLib@@AAEXXZ @2050
    ?NotifyPump@CNotifyPump@DuiLib@@QAEXAAUtagTNotifyUI@2@@Z @2051
    ?NotifyViewResize@CHeaderControlUI@DuiLib@@AAEXXZ @2052
    ?Offset@CDuiRect@DuiLib@@QAEXHH@Z @2053
    ?OffsetRect@DuiApi@@YAHPAUtagRECT@@HH@Z @2054
    ?OnChar@WindowImplBase@DuiLib@@UAEJIIJAAH@Z @2055
    ?OnCheckBoxChanged@CTreeViewUI@DuiLib@@UAE_NPAX@Z @2056
    ?OnClick@WindowImplBase@DuiLib@@MAEXAAUtagTNotifyUI@2@@Z @2057
    ?OnClose@WindowImplBase@DuiLib@@UAEJIIJAAH@Z @2058
    ?OnCreate@CMenuWnd@DuiLib@@QAEJIIJAAH@Z @2059
    ?OnCreate@WindowImplBase@DuiLib@@UAEJIIJAAH@Z @2060
    ?OnDBClickItem@CTreeViewUI@DuiLib@@UAE_NPAX@Z @2061
    ?OnDestroy@WindowImplBase@DuiLib@@UAEJIIJAAH@Z @2062
    ?OnDocWindowActivate@CWebBrowserUI@DuiLib@@UAGJH@Z @2063
    ?OnDragEnter@CControlUI@DuiLib@@UAEJPAUIDataObject@@KU_POINTL@@PAK@Z @2064
    ?OnDragEnter@CPaintManagerUI@DuiLib@@UAEJPAUIDataObject@@KU_POINTL@@PAK@Z @2065
    ?OnDragLeave@CControlUI@DuiLib@@UAEJXZ @2066
    ?OnDragLeave@CPaintManagerUI@DuiLib@@UAEJXZ @2067
    ?OnDragOver@CControlUI@DuiLib@@UAEJKU_POINTL@@PAK@Z @2068
    ?OnDragOver@CPaintManagerUI@DuiLib@@UAEJKU_POINTL@@PAK@Z @2069
    ?OnDrawActivedBackground@WindowImplBase@DuiLib@@MAEX_N@Z @2070
    ?OnDrop@CControlUI@DuiLib@@UAEJPAUIDataObject@@KU_POINTL@@PAK@Z @2071
    ?OnDrop@CPaintManagerUI@DuiLib@@UAEJPAUIDataObject@@KU_POINTL@@PAK@Z @2072
    ?OnFinalMessage@CMenuWnd@DuiLib@@UAEXPAUHWND__@@@Z @2073
    ?OnFinalMessage@CWindowWnd@DuiLib@@MAEXPAUHWND__@@@Z @2074
    ?OnFinalMessage@WindowImplBase@DuiLib@@UAEXPAUHWND__@@@Z @2075
    ?OnFolderChanged@CTreeViewUI@DuiLib@@UAE_NPAX@Z @2076
    ?OnFrameWindowActivate@CWebBrowserUI@DuiLib@@UAGJH@Z @2077
    ?OnGetMinMaxInfo@WindowImplBase@DuiLib@@UAEJIIJAAH@Z @2078
    ?OnGetObject@CWindowWnd@DuiLib@@MAEJIIJAA_N@Z @2079
    ?OnKeyDown@WindowImplBase@DuiLib@@UAEJIIJAAH@Z @2080
    ?OnKillFocus@CMenuWnd@DuiLib@@QAEJIIJAAH@Z @2081
    ?OnKillFocus@WindowImplBase@DuiLib@@UAEJIIJAAH@Z @2082
    ?OnLButtonDown@WindowImplBase@DuiLib@@UAEJIIJAAH@Z @2083
    ?OnLButtonUp@WindowImplBase@DuiLib@@UAEJIIJAAH@Z @2084
    ?OnLoopEnd@CGifAnimUI@DuiLib@@MAEXXZ @2085
    ?OnMenuItemButtonUp@CMenuElementUI@DuiLib@@IAE_NAAUtagTEventUI@2@@Z @2086
    ?OnMouseHover@WindowImplBase@DuiLib@@UAEJIIJAAH@Z @2087
    ?OnMouseMove@WindowImplBase@DuiLib@@UAEJIIJAAH@Z @2088
    ?OnMouseWheel@WindowImplBase@DuiLib@@UAEJIIJAAH@Z @2089
    ?OnNcActivate@WindowImplBase@DuiLib@@UAEJIIAAJAAH@Z @2090
    ?OnNcCalcSize@WindowImplBase@DuiLib@@UAEJIIJAAH@Z @2091
    ?OnNcHitTest@WindowImplBase@DuiLib@@UAEJIIJAAH@Z @2092
    ?OnNcLButtonDlclk@WindowImplBase@DuiLib@@UAEJIIJAAH@Z @2093
    ?OnNcPaint@WindowImplBase@DuiLib@@UAEJIIJAAH@Z @2094
    ?OnPaintWnd@WindowImplBase@DuiLib@@UAEJIIJAAH@Z @2095
    ?OnSetCursor@WindowImplBase@DuiLib@@UAEJIIJAAH@Z @2096
    ?OnSetFocus@WindowImplBase@DuiLib@@UAEJIIJAAH@Z @2097
    ?OnSize@CMenuWnd@DuiLib@@QAEJIIJAAH@Z @2098
    ?OnSize@WindowImplBase@DuiLib@@UAEJIIJAAH@Z @2099
    ?OnSysCommand@WindowImplBase@DuiLib@@UAEJIIJAAH@Z @2100
    ?OnTextChange@CRichEditCustomerUI@DuiLib@@QAEXXZ @2101
    ?OnTimer@CControlUI@DuiLib@@UAEXIK@Z @2102
    ?OnTimer@CGifAnimUI@DuiLib@@AAEXI@Z @2103
    ?OnTxNotify@CRichEditCustomerUI@DuiLib@@UAEXKPAX@Z @2104
    ?OnTxNotify@CRichEditUI@DuiLib@@UAEXKPAX@Z @2105
    ?OnTxNotifyInvalidate@CRichEditCustomerUI@DuiLib@@UAEXXZ @2106
    ?OnTxNotifyInvalidate@CRichEditUI@DuiLib@@UAEXXZ @2107
    ?OnTxNotifyScrollBarChanged@CRichEditCustomerUI@DuiLib@@UAEX_N@Z @2108
    ?OnTxNotifyScrollBarChanged@CRichEditUI@DuiLib@@UAEX_N@Z @2109
    ?OnTxNotifyUpdateLayout@CRichEditCustomerUI@DuiLib@@UAEXXZ @2110
    ?OnTxNotifyUpdateLayout@CRichEditUI@DuiLib@@UAEXXZ @2111
    ?OnTxViewChanged@CRichEditUI@DuiLib@@UAE_NXZ @2112
    ?OnUpdate@CPaintManagerUI@DuiLib@@QAEXXZ @2113
    ?OnVideoWndPaint@CPaintManagerUI@DuiLib@@QAE_NXZ @2114
    ?OnWindowPosChanging@WindowImplBase@DuiLib@@UAEJIIJAAH@Z @2115
    ?PageDown@CContainerUI@DuiLib@@UAEXXZ @2116
    ?PageDown@CListUI@DuiLib@@UAEXXZ @2117
    ?PageDown@CRichEditUI@DuiLib@@UAEXXZ @2118
    ?PageLeft@CContainerUI@DuiLib@@UAEXXZ @2119
    ?PageLeft@CListUI@DuiLib@@UAEXXZ @2120
    ?PageLeft@CRichEditUI@DuiLib@@UAEXXZ @2121
    ?PageRight@CContainerUI@DuiLib@@UAEXXZ @2122
    ?PageRight@CListUI@DuiLib@@UAEXXZ @2123
    ?PageRight@CRichEditUI@DuiLib@@UAEXXZ @2124
    ?PageUp@CContainerUI@DuiLib@@UAEXXZ @2125
    ?PageUp@CListUI@DuiLib@@UAEXXZ @2126
    ?PageUp@CRichEditUI@DuiLib@@UAEXXZ @2127
    ?PaintBk@CScrollBarUI@DuiLib@@QAEXPAUHDC__@@@Z @2128
    ?PaintBkColor@CControlUI@DuiLib@@UAEXPAUHDC__@@@Z @2129
    ?PaintBkColor@CRichEditUI@DuiLib@@UAEXPAUHDC__@@@Z @2130
    ?PaintBkColorWithGdiplus@CControlUI@DuiLib@@IAEXPAUHDC__@@KKK@Z @2131
    ?PaintBkImage@CControlUI@DuiLib@@UAEXPAUHDC__@@@Z @2132
    ?PaintBorder@CControlUI@DuiLib@@UAEXPAUHDC__@@@Z @2133
    ?PaintBorderWithGdiplus@CControlUI@DuiLib@@IAEXPAUHDC__@@K@Z @2134
    ?PaintButton1@CScrollBarUI@DuiLib@@QAEXPAUHDC__@@@Z @2135
    ?PaintButton2@CScrollBarUI@DuiLib@@QAEXPAUHDC__@@@Z @2136
    ?PaintRail@CScrollBarUI@DuiLib@@QAEXPAUHDC__@@@Z @2137
    ?PaintStatusBkImage@COptionUI@DuiLib@@MAE_NPAUHDC__@@@Z @2138
    ?PaintStatusImage@CButtonLayoutUI@DuiLib@@UAEXPAUHDC__@@@Z @2139
    ?PaintStatusImage@CButtonUI@DuiLib@@UAEXPAUHDC__@@@Z @2140
    ?PaintStatusImage@CComboBoxUI@DuiLib@@UAEXPAUHDC__@@@Z @2141
    ?PaintStatusImage@CComboUI@DuiLib@@UAEXPAUHDC__@@@Z @2142
    ?PaintStatusImage@CControlUI@DuiLib@@UAEXPAUHDC__@@@Z @2143
    ?PaintStatusImage@CEditUI@DuiLib@@UAEXPAUHDC__@@@Z @2144
    ?PaintStatusImage@CListHeaderItemUI@DuiLib@@UAEXPAUHDC__@@@Z @2145
    ?PaintStatusImage@COptionUI@DuiLib@@UAEXPAUHDC__@@@Z @2146
    ?PaintStatusImage@CProgressUI@DuiLib@@UAEXPAUHDC__@@@Z @2147
    ?PaintStatusImage@CSliderUI@DuiLib@@UAEXPAUHDC__@@@Z @2148
    ?PaintText@CButtonUI@DuiLib@@UAEXPAUHDC__@@@Z @2149
    ?PaintText@CComboBoxUI@DuiLib@@UAEXPAUHDC__@@@Z @2150
    ?PaintText@CComboUI@DuiLib@@UAEXPAUHDC__@@@Z @2151
    ?PaintText@CControlUI@DuiLib@@UAEXPAUHDC__@@@Z @2152
    ?PaintText@CEditUI@DuiLib@@UAEXPAUHDC__@@@Z @2153
    ?PaintText@CLabelUI@DuiLib@@UAEXPAUHDC__@@@Z @2154
    ?PaintText@CListHeaderItemUI@DuiLib@@UAEXPAUHDC__@@@Z @2155
    ?PaintText@COptionUI@DuiLib@@UAEXPAUHDC__@@@Z @2156
    ?PaintText@CTextUI@DuiLib@@UAEXPAUHDC__@@@Z @2157
    ?PaintThumb@CScrollBarUI@DuiLib@@QAEXPAUHDC__@@@Z @2158
    ?ParentIsSelected@CControlUI@DuiLib@@ABE_NXZ @2159
    ?ParentProc@CShadowUI@DuiLib@@KGJPAUHWND__@@IIJ@Z @2160
    ?ParseFontNode@CDialogBuilder@DuiLib@@AAEXPAVCMarkupNode@2@PAVCPaintManagerUI@2@@Z @2161
    ?Paste@CRichEditUI@DuiLib@@QAE_NXZ @2162
    ?PasteSpecial@CRichEditUI@DuiLib@@QAEXIKPAUHMETAFILE__@@@Z @2163
    ?PauseGif@CGifAnimUI@DuiLib@@QAEXXZ @2164
    ?PerformClick@CRichEditUI@DuiLib@@QAE_NABUtagPOINT@@@Z @2165
    ?PerformDblClick@CRichEditUI@DuiLib@@QAE_NABUtagPOINT@@@Z @2166
    ?PerformMouseEvent@CRichEditUI@DuiLib@@QAE_NABUtagPOINT@@W4RichEditMouseEventType@12@@Z @2167
    ?PerformQuickClick@CRichEditUI@DuiLib@@QAE_NABUtagPOINT@@@Z @2168
    ?PerformSetCursor@CRichEditCustomerUI@DuiLib@@UAE_NXZ @2169
    ?PerformSetCursor@CRichEditUI@DuiLib@@UAE_NXZ @2170
    ?PerformTextChange@CRichEditUI@DuiLib@@QAEXXZ @2171
    ?PlayGif@CGifAnimUI@DuiLib@@QAEXXZ @2172
    ?PopKeyActiveMenuWnd@ObserverImpl@DuiLib@@UAEXXZ @2173
    ?PosFromChar@CRichEditUI@DuiLib@@QBE?AVCPoint@2@I@Z @2174
    ?PostMessageW@CWindowWnd@DuiLib@@QAEJIIJ@Z @2175
    ?PreMessageHandler@CPaintManagerUI@DuiLib@@QAE_NIIJAAJ@Z @2176
    ?PreMultiply@CShadowUI@DuiLib@@IAEKKE@Z @2177
    ?ProcessScrollBar@CContainerUI@DuiLib@@MAEXUtagRECT@@HH@Z @2178
    ?ProgressChange@CWebBrowserUI@DuiLib@@IAEXJJ@Z @2179
    ?PushItemToLine@CFlexLayoutUI@DuiLib@@AAE_N_NPAVCControlUI@2@ABHAAHAAV?$vector@U?$pair@PAVCControlUI@DuiLib@@UtagRECT@@@std@@V?$allocator@U?$pair@PAVCControlUI@DuiLib@@UtagRECT@@@std@@@2@@std@@AAV?$vector@V?$vector@U?$pair@PAVCControlUI@DuiLib@@UtagRECT@@@std@@V?$allocator@U?$pair@PAVCControlUI@DuiLib@@UtagRECT@@@std@@@2@@std@@V?$allocator@V?$vector@U?$pair@PAVCControlUI@DuiLib@@UtagRECT@@@std@@V?$allocator@U?$pair@PAVCControlUI@DuiLib@@UtagRECT@@@std@@@2@@std@@@2@@5@@Z @2180
    ?QueryInterface@CDefaultAccessibility@DuiLib@@UAGJABU_GUID@@PAPAX@Z @2181
    ?QueryInterface@CWebBrowserUI@DuiLib@@UAGJABU_GUID@@PAPAX@Z @2182
    ?QueryService@CWebBrowserUI@DuiLib@@UAGJABU_GUID@@0PAPAX@Z @2183
    ?QueryStatus@CWebBrowserUI@DuiLib@@UAGJPBU_GUID@@KQAU_tagOLECMD@@PAU_tagOLECMDTEXT@@@Z @2184
    ?RBroadcast@ObserverImpl@DuiLib@@UAEHUContextMenuParam@2@@Z @2185
    ?ReInitItemRangeRecord@CListBodyUI@DuiLib@@IAEXXZ @2186
    ?ReInitVisibleRange@CListBodyUI@DuiLib@@IAEXXZ @2187
    ?RealseEmojiCache@DuiLib@@YAXXZ @2188
    ?ReapObjects@CPaintManagerUI@DuiLib@@QAEXPAVCControlUI@2@@Z @2189
    ?Receive@CMenuWnd@DuiLib@@UAEHUContextMenuParam@2@@Z @2190
    ?Receive@ReceiverImpl@DuiLib@@UAEHUContextMenuParam@2@@Z @2191
    ?RectToGdiplusRect@DuiLib@@YA?AVRect@Gdiplus@@ABUtagRECT@@@Z @2192
    ?RectToGdiplusRectF@DuiLib@@YA?AVRectF@Gdiplus@@ABUtagRECT@@@Z @2193
    ?Rectangle@DuiApi@@YAHPAUHDC__@@HHHH@Z @2194
    ?Redo@CRichEditUI@DuiLib@@QAE_NXZ @2195
    ?Refresh2@CWebBrowserUI@DuiLib@@QAEXH@Z @2196
    ?Refresh@CWebBrowserUI@DuiLib@@QAEXXZ @2197
    ?RegisterEventHandler@CWebBrowserUI@DuiLib@@IAEJH@Z @2198
    ?RegisterSuperclass@CWindowWnd@DuiLib@@QAE_NXZ @2199
    ?RegisterTouchWindow@CTouchUtils@DuiLib@@SAHPAUHWND__@@K@Z @2200
    ?RegisterWindowClass@CWindowWnd@DuiLib@@QAE_NXZ @2201
    ?Release@CDefaultAccessibility@DuiLib@@UAGKXZ @2202
    ?Release@CMarkup@DuiLib@@QAEXXZ @2203
    ?Release@CWebBrowserUI@DuiLib@@UAGKXZ @2204
    ?ReleaseCapture@CPaintManagerUI@DuiLib@@QAEXXZ @2205
    ?ReleaseCapture@CSplitterUI@DuiLib@@AAEXXZ @2206
    ?ReleaseControl@CActiveXUI@DuiLib@@MAEXXZ @2207
    ?ReleaseControl@CContainerAccessibility@DuiLib@@UAEXXZ @2208
    ?ReleaseControl@CControlAccessiblity@DuiLib@@UAEXXZ @2209
    ?ReleaseControl@CWebBrowserUI@DuiLib@@MAEXXZ @2210
    ?ReleaseWindow@CWindowAccessibility@DuiLib@@UAEXXZ @2211
    ?Remove@CComboUI@DuiLib@@UAE_NPAVCControlUI@2@@Z @2212
    ?Remove@CContainerUI@DuiLib@@UAE_NPAVCControlUI@2@@Z @2213
    ?Remove@CListUI@DuiLib@@UAE_NPAVCControlUI@2@@Z @2214
    ?Remove@CMenuUI@DuiLib@@UAE_NPAVCControlUI@2@@Z @2215
    ?Remove@CStdIntArray@DuiLib@@QAE_NH@Z @2216
    ?Remove@CStdPtrArray@DuiLib@@QAE_NH@Z @2217
    ?Remove@CStdStringPtrMap@DuiLib@@QAE_NPB_W@Z @2218
    ?Remove@CStdValArray@DuiLib@@QAE_NH@Z @2219
    ?Remove@CTabLayoutUI@DuiLib@@UAE_NPAVCControlUI@2@@Z @2220
    ?Remove@CTreeNodeUI@DuiLib@@UAE_NPAVCControlUI@2@@Z @2221
    ?Remove@CTreeViewUI@DuiLib@@UAE_NPAVCTreeNodeUI@2@@Z @2222
    ?RemoveAll@CComboUI@DuiLib@@UAEXXZ @2223
    ?RemoveAll@CContainerUI@DuiLib@@UAEXXZ @2224
    ?RemoveAll@CListUI@DuiLib@@UAEXXZ @2225
    ?RemoveAll@CStdStringPtrMap@DuiLib@@QAEXXZ @2226
    ?RemoveAll@CTabLayoutUI@DuiLib@@UAEXXZ @2227
    ?RemoveAll@CTreeViewUI@DuiLib@@UAEXXZ @2228
    ?RemoveAllDefaultAttributeList@CPaintManagerUI@DuiLib@@QAEXXZ @2229
    ?RemoveAllFonts@CPaintManagerUI@DuiLib@@QAEXXZ @2230
    ?RemoveAllNoDelete@CContainerUI@DuiLib@@QAEXXZ @2231
    ?RemoveAllOptionGroups@CPaintManagerUI@DuiLib@@QAEXXZ @2232
    ?RemoveAllResLoaders@CResManager@DuiLib@@SAXXZ @2233
    ?RemoveAllTimers@CPaintManagerUI@DuiLib@@QAEXXZ @2234
    ?RemoveAt@CComboUI@DuiLib@@UAE_NH@Z @2235
    ?RemoveAt@CContainerUI@DuiLib@@UAE_NH@Z @2236
    ?RemoveAt@CListUI@DuiLib@@UAE_NH_N@Z @2237
    ?RemoveAt@CTreeNodeUI@DuiLib@@QAE_NPAV12@@Z @2238
    ?RemoveAt@CTreeViewUI@DuiLib@@UAE_NH@Z @2239
    ?RemoveDefaultAttributeList@CPaintManagerUI@DuiLib@@QAE_NPB_W@Z @2240
    ?RemoveFont@CPaintManagerUI@DuiLib@@QAE_NPAUHFONT__@@@Z @2241
    ?RemoveFontAt@CPaintManagerUI@DuiLib@@QAE_NH@Z @2242
    ?RemoveMessageFilter@CHeaderControlUI@DuiLib@@AAEXXZ @2243
    ?RemoveMessageFilter@CPaintManagerUI@DuiLib@@QAE_NPAVIMessageFilterUI@2@@Z @2244
    ?RemoveNoDelete@CContainerUI@DuiLib@@QAE_NPAVCControlUI@2@@Z @2245
    ?RemoveNotifier@CPaintManagerUI@DuiLib@@QAE_NPAVINotifyUI@2@@Z @2246
    ?RemoveObserver@ReceiverImpl@DuiLib@@UAEXXZ @2247
    ?RemoveOnlyAcceptedKey@CRichEditUI@DuiLib@@QAEXI@Z @2248
    ?RemoveOptionGroup@CPaintManagerUI@DuiLib@@QAEXPB_WPAVCControlUI@2@@Z @2249
    ?RemoveOwnerMessageFilter@CMenuWnd@DuiLib@@IAEXXZ @2250
    ?RemovePointer@CPaintManagerUI@DuiLib@@QAE_NK@Z @2251
    ?RemovePostPaint@CPaintManagerUI@DuiLib@@QAE_NPAVCControlUI@2@@Z @2252
    ?RemovePreMessageFilter@CPaintManagerUI@DuiLib@@QAE_NPAVIMessageFilterUI@2@@Z @2253
    ?RemoveReceiver@ObserverImpl@DuiLib@@UAEXPAVReceiverImplBase@2@@Z @2254
    ?RemoveSelect@CListUI@DuiLib@@QAEXH@Z @2255
    ?RemoveSplitter@CPaintManagerUI@DuiLib@@AAEXPAVCSplitterUI@2@@Z @2256
    ?RemoveSysCommandMessageFilter@CPaintManagerUI@DuiLib@@QAE_NPAVIMessageFilterUI@2@@Z @2257
    ?RemoveTranslateAccelerator@CPaintManagerUI@DuiLib@@QAE_NPAVITranslateAccelerator@2@@Z @2258
    ?RemoveUnacceptedKey@CRichEditUI@DuiLib@@QAEXI@Z @2259
    ?RemoveVirtualWnd@CNotifyPump@DuiLib@@QAE_NVCDuiString@2@@Z @2260
    ?Replace@CDuiString@DuiLib@@QAEHPB_W0@Z @2261
    ?ReplaceSel@CRichEditUI@DuiLib@@QAEXPB_W_N@Z @2262
    ?Reset@ChatViewImageFilter@DuiLib@@UAEXXZ @2263
    ?Reset@EmotionList@DuiLib@@QAEXXZ @2264
    ?ResetButtonDownState@CRichEditUI@DuiLib@@QAEXXZ @2265
    ?ResetEventClick@CPaintManagerUI@DuiLib@@QAEXXZ @2266
    ?ResetListItemState@CListContainerElementUI@DuiLib@@UAEXXZ @2267
    ?ResetListItemState@CListElementUI@DuiLib@@UAEXXZ @2268
    ?ResetMouseTracking@CPaintManagerUI@DuiLib@@QAEXXZ @2269
    ?ResetOffset@CDuiRect@DuiLib@@QAEXXZ @2270
    ?ResetTooltipWindow@CPaintManagerUI@DuiLib@@QAEXXZ @2271
    ?Resize@CStdIntArray@DuiLib@@QAEXH@Z @2272
    ?Resize@CStdPtrArray@DuiLib@@QAEXH@Z @2273
    ?Resize@CStdStringPtrMap@DuiLib@@QAEXH@Z @2274
    ?ResizeBorder@CWebBrowserUI@DuiLib@@UAGJPBUtagRECT@@PAUIOleInPlaceUIWindow@@H@Z @2275
    ?ResizeClient@CWindowWnd@DuiLib@@QAEXHH@Z @2276
    ?ResizeFont@CLabelUI@DuiLib@@IAEXXZ @2277
    ?ResizeMenu@CMenuWnd@DuiLib@@QAEX_N@Z @2278
    ?ResponseDefaultKeyEvent@WindowImplBase@DuiLib@@MAEJI@Z @2279
    ?RestoreDefaultSHDragFileImage@CPaintManagerUI@DuiLib@@QAEXXZ @2280
    ?ReverseFind@CDuiString@DuiLib@@QBEH_W@Z @2281
    ?Right@CDuiString@DuiLib@@QBE?AV12@H@Z @2282
    ?RightEdgeWindow@CWindowWnd@DuiLib@@QAEXHH@Z @2283
    ?RoundRect@DuiApi@@YAHPAUHDC__@@HHHHHH@Z @2284
    ?SHAppBarMessage@DuiApi@@YAIKPAU_AppBarData@@@Z @2285
    ?Scale@CDPIUtils@DuiLib@@SAHHH@Z @2286
    ?ScalePoint@CDPIUtils@DuiLib@@SA?AUtagPOINT@@ABU3@H@Z @2287
    ?ScaleRect@CDPIUtils@DuiLib@@SA?AUtagRECT@@ABU3@H@Z @2288
    ?ScaleRound@CDPIUtils@DuiLib@@SAHHH@Z @2289
    ?ScaleSize@CDPIUtils@DuiLib@@SA?AUtagSIZE@@ABU3@H@Z @2290
    ?ScaleSizeRound@CDPIUtils@DuiLib@@SA?AUtagSIZE@@ABU3@H@Z @2291
    ?ScaledImage@CRenderEngine@DuiLib@@SA?AV?$shared_ptr@VImage@Gdiplus@@@std@@ABV34@H@Z @2292
    ?ScaledImage@CRenderEngine@DuiLib@@SA?AV?$shared_ptr@VImage@Gdiplus@@@std@@ABV34@HH@Z @2293
    ?ScreenToClient@DuiApi@@YAHPAUHWND__@@PAUtagPOINT@@@Z @2294
    ?Scroll@CListUI@DuiLib@@QAEXHH@Z @2295
    ?ScrollBarProcAddRef@CListBodyUI@DuiLib@@IAEXXZ @2296
    ?ScrollBarProcReleaseRef@CListBodyUI@DuiLib@@IAEXXZ @2297
    ?ScrollCaret@CRichEditUI@DuiLib@@QAEXXZ @2298
    ?ScrollToIndex@CListUI@DuiLib@@QAEJHHH@Z @2299
    ?Select@CListContainerElementUI@DuiLib@@UAE_N_N@Z @2300
    ?Select@CListElementUI@DuiLib@@UAE_N_N@Z @2301
    ?Select@CMenuElementUI@DuiLib@@UAE_N_N@Z @2302
    ?Select@CTreeNodeUI@DuiLib@@UAE_N_N@Z @2303
    ?SelectItem@CComboUI@DuiLib@@UAE_NH_N00@Z @2304
    ?SelectItem@CListUI@DuiLib@@UAE_NH_N00@Z @2305
    ?SelectItem@CTabLayoutUI@DuiLib@@QAE_NH@Z @2306
    ?SelectItem@CTabLayoutUI@DuiLib@@QAE_NPAVCControlUI@2@@Z @2307
    ?Selected@COptionUI@DuiLib@@UAEX_N@Z @2308
    ?SendMessageW@CWindowWnd@DuiLib@@QAEJIIJ@Z @2309
    ?SendNotify@CPaintManagerUI@DuiLib@@QAEXAAUtagTNotifyUI@2@_N@Z @2310
    ?SendNotify@CPaintManagerUI@DuiLib@@QAEXPAVCControlUI@2@PB_WIJ_N@Z @2311
    ?SendSysCommandNotify@CPaintManagerUI@DuiLib@@QAEXIIJAAH@Z @2312
    ?Set@CStdStringPtrMap@DuiLib@@QAEPAXPB_WPAX@Z @2313
    ?SetAbsoluteFloatType@CControlUI@DuiLib@@UAEX_N@Z @2314
    ?SetAccessible@CControlUI@DuiLib@@QAEXPAUIAccessible@@@Z @2315
    ?SetAlignmentPt@CControlUI@DuiLib@@UAEXUtagSIZE@@@Z @2316
    ?SetAlignmentX@CControlUI@DuiLib@@UAEXPB_W@Z @2317
    ?SetAlignmentY@CControlUI@DuiLib@@UAEXPB_W@Z @2318
    ?SetAlternateBk@CComboUI@DuiLib@@QAEX_N@Z @2319
    ?SetAlternateBk@CListUI@DuiLib@@QAEX_N@Z @2320
    ?SetAlwaysHideScrollBar@CContainerUI@DuiLib@@UAEX_N@Z @2321
    ?SetAlwaysHideScrollBar@CListUI@DuiLib@@UAEX_N@Z @2322
    ?SetAt@CDuiString@DuiLib@@QAEXH_W@Z @2323
    ?SetAt@CStdIntArray@DuiLib@@QAE_NHH@Z @2324
    ?SetAt@CStdPtrArray@DuiLib@@QAE_NHPAX@Z @2325
    ?SetAttribute@CActiveXUI@DuiLib@@UAEXPB_W0@Z @2326
    ?SetAttribute@CButtonLayoutUI@DuiLib@@UAEXPB_W0@Z @2327
    ?SetAttribute@CButtonUI@DuiLib@@UAEXPB_W0@Z @2328
    ?SetAttribute@CChildLayoutUI@DuiLib@@UAEXPB_W0@Z @2329
    ?SetAttribute@CComboBoxUI@DuiLib@@UAEXPB_W0@Z @2330
    ?SetAttribute@CComboUI@DuiLib@@UAEXPB_W0@Z @2331
    ?SetAttribute@CContainerUI@DuiLib@@UAEXPB_W0@Z @2332
    ?SetAttribute@CControlUI@DuiLib@@UAEXPB_W0@Z @2333
    ?SetAttribute@CEditUI@DuiLib@@UAEXPB_W0@Z @2334
    ?SetAttribute@CFlexLayoutUI@DuiLib@@UAEXPB_W0@Z @2335
    ?SetAttribute@CFlowLayoutUI@DuiLib@@UAEXPB_W0@Z @2336
    ?SetAttribute@CGifAnimUI@DuiLib@@UAEXPB_W0@Z @2337
    ?SetAttribute@CHeaderControlUI@DuiLib@@UAEXPB_W0@Z @2338
    ?SetAttribute@CHorizontalLayoutUI@DuiLib@@UAEXPB_W0@Z @2339
    ?SetAttribute@CLabelUI@DuiLib@@UAEXPB_W0@Z @2340
    ?SetAttribute@CListContainerElementUI@DuiLib@@UAEXPB_W0@Z @2341
    ?SetAttribute@CListElementUI@DuiLib@@UAEXPB_W0@Z @2342
    ?SetAttribute@CListHeaderItemUI@DuiLib@@UAEXPB_W0@Z @2343
    ?SetAttribute@CListLabelElementUI@DuiLib@@UAEXPB_W0@Z @2344
    ?SetAttribute@CListUI@DuiLib@@UAEXPB_W0@Z @2345
    ?SetAttribute@CMenuElementUI@DuiLib@@UAEXPB_W0@Z @2346
    ?SetAttribute@CMenuUI@DuiLib@@UAEXPB_W0@Z @2347
    ?SetAttribute@COptionUI@DuiLib@@UAEXPB_W0@Z @2348
    ?SetAttribute@CProgressUI@DuiLib@@UAEXPB_W0@Z @2349
    ?SetAttribute@CRichEditUI@DuiLib@@UAEXPB_W0@Z @2350
    ?SetAttribute@CScrollBarUI@DuiLib@@UAEXPB_W0@Z @2351
    ?SetAttribute@CSliderUI@DuiLib@@UAEXPB_W0@Z @2352
    ?SetAttribute@CSplitterUI@DuiLib@@UAEXPB_W0@Z @2353
    ?SetAttribute@CTabLayoutUI@DuiLib@@UAEXPB_W0@Z @2354
    ?SetAttribute@CTileLayoutUI@DuiLib@@UAEXPB_W0@Z @2355
    ?SetAttribute@CTreeNodeUI@DuiLib@@UAEXPB_W0@Z @2356
    ?SetAttribute@CTreeViewUI@DuiLib@@UAEXPB_W0@Z @2357
    ?SetAttribute@CVerticalLayoutUI@DuiLib@@UAEXPB_W0@Z @2358
    ?SetAttribute@CWebBrowserUI@DuiLib@@MAEXPB_W0@Z @2359
    ?SetAutoDestroy@CContainerUI@DuiLib@@UAEX_N@Z @2360
    ?SetAutoNavigation@CWebBrowserUI@DuiLib@@QAEX_N@Z @2361
    ?SetAutoPlay@CGifAnimUI@DuiLib@@QAEX_N@Z @2362
    ?SetAutoRecoverFocus@CPaintManagerUI@DuiLib@@QAEX_N@Z @2363
    ?SetAutoResizeByText@CButtonUI@DuiLib@@QAEX_N@Z @2364
    ?SetAutoSize@CGifAnimUI@DuiLib@@QAEX_N@Z @2365
    ?SetAutoURLDetect@CRichEditUI@DuiLib@@QAE_N_N@Z @2366
    ?SetBackgroundTransparent@CPaintManagerUI@DuiLib@@QAEX_N@Z @2367
    ?SetBaselineRevise@CLabelUI@DuiLib@@QAEXH@Z @2368
    ?SetBaselineRevise@CRichEditUI@DuiLib@@QAEXH@Z @2369
    ?SetBkColor2@CControlUI@DuiLib@@QAEXK@Z @2370
    ?SetBkColor3@CControlUI@DuiLib@@QAEXK@Z @2371
    ?SetBkColor@CControlUI@DuiLib@@QAEXK@Z @2372
    ?SetBkColorGradientPercent@CControlUI@DuiLib@@QAEXH@Z @2373
    ?SetBkColorGradientVertical@CControlUI@DuiLib@@QAEX_N@Z @2374
    ?SetBkDisabledImage@CScrollBarUI@DuiLib@@QAEXPB_W@Z @2375
    ?SetBkHotImage@CScrollBarUI@DuiLib@@QAEXPB_W@Z @2376
    ?SetBkHoverImage@COptionUI@DuiLib@@QAEXPB_W@Z @2377
    ?SetBkImage@CControlUI@DuiLib@@QAEXPB_W@Z @2378
    ?SetBkImage@CGifAnimUI@DuiLib@@QAEXPB_W@Z @2379
    ?SetBkNormalImage@CScrollBarUI@DuiLib@@QAEXPB_W@Z @2380
    ?SetBkPushedImage@CScrollBarUI@DuiLib@@QAEXPB_W@Z @2381
    ?SetBkSelectedImage@COptionUI@DuiLib@@QAEXPB_W@Z @2382
    ?SetBlockKeyboard@CMenuWnd@DuiLib@@QAEX_N@Z @2383
    ?SetBorderColor@CControlUI@DuiLib@@QAEXK@Z @2384
    ?SetBorderRound@CControlUI@DuiLib@@QAEXUtagSIZE@@@Z @2385
    ?SetBorderSize@CContainerUI@DuiLib@@UAEXH@Z @2386
    ?SetBorderSize@CContainerUI@DuiLib@@UAEXUtagRECT@@@Z @2387
    ?SetBorderSize@CControlUI@DuiLib@@UAEXH@Z @2388
    ?SetBorderSize@CControlUI@DuiLib@@UAEXUtagRECT@@@Z @2389
    ?SetBorderStyle@CControlUI@DuiLib@@QAEXH@Z @2390
    ?SetBottomBorderSize@CControlUI@DuiLib@@QAEXH@Z @2391
    ?SetBottomLeftCornerImage@CContainerUI@DuiLib@@IAEXPB_W@Z @2392
    ?SetBottomRightCornerImage@CContainerUI@DuiLib@@IAEXPB_W@Z @2393
    ?SetBuilderCallback@CChildLayoutUI@DuiLib@@QAEXPAVIDialogBuilderCallback@2@@Z @2394
    ?SetButton1DisabledImage@CScrollBarUI@DuiLib@@QAEXPB_W@Z @2395
    ?SetButton1HotImage@CScrollBarUI@DuiLib@@QAEXPB_W@Z @2396
    ?SetButton1NormalImage@CScrollBarUI@DuiLib@@QAEXPB_W@Z @2397
    ?SetButton1PushedImage@CScrollBarUI@DuiLib@@QAEXPB_W@Z @2398
    ?SetButton2DisabledImage@CScrollBarUI@DuiLib@@QAEXPB_W@Z @2399
    ?SetButton2HotImage@CScrollBarUI@DuiLib@@QAEXPB_W@Z @2400
    ?SetButton2NormalImage@CScrollBarUI@DuiLib@@QAEXPB_W@Z @2401
    ?SetButton2PushedImage@CScrollBarUI@DuiLib@@QAEXPB_W@Z @2402
    ?SetCanFocused@CControlUI@DuiLib@@UAEX_N@Z @2403
    ?SetCanShiftSelect@CListUI@DuiLib@@QAEX_N@Z @2404
    ?SetCaptionRect@CPaintManagerUI@DuiLib@@QAEXAAUtagRECT@@@Z @2405
    ?SetCapture@CPaintManagerUI@DuiLib@@QAEXXZ @2406
    ?SetCapture@CSplitterUI@DuiLib@@AAEXXZ @2407
    ?SetCaretPos@DuiApi@@YAHHH@Z @2408
    ?SetChangeStep@CSliderUI@DuiLib@@QAEXH@Z @2409
    ?SetCheck@CCheckBoxUI@DuiLib@@UAEX_N@Z @2410
    ?SetCheckItem@CMenuElementUI@DuiLib@@QAEX_N@Z @2411
    ?SetChecked@CMenuElementUI@DuiLib@@QAEX_N@Z @2412
    ?SetChildLayoutXML@CChildLayoutUI@DuiLib@@QAEXVCDuiString@2@@Z @2413
    ?SetChildPadding@CContainerUI@DuiLib@@UAEXH@Z @2414
    ?SetChildPadding@CListUI@DuiLib@@UAEXH@Z @2415
    ?SetChildWindowPos@DuiApi@@YAHPAUHWND__@@0HHHHI@Z @2416
    ?SetColor@CShadowUI@DuiLib@@QAE_NK@Z @2417
    ?SetColorHSL@CControlUI@DuiLib@@QAEX_N@Z @2418
    ?SetColumns@CTileLayoutUI@DuiLib@@QAEXH@Z @2419
    ?SetComboDisabledTextColor@CComboUI@DuiLib@@QAEXK@Z @2420
    ?SetComboPushedTextColor@CComboUI@DuiLib@@QAEXK@Z @2421
    ?SetComboTextColor@CComboUI@DuiLib@@QAEXK@Z @2422
    ?SetComboWndShadowCorner@CComboUI@DuiLib@@QAEXUtagRECT@@@Z @2423
    ?SetComboWndShadowImage@CComboUI@DuiLib@@QAEXPB_W@Z @2424
    ?SetComboWndShowShadow@CComboUI@DuiLib@@QAEX_N@Z @2425
    ?SetContextMenuUsed@CControlUI@DuiLib@@UAEX_N@Z @2426
    ?SetControlFlags@CControlUI@DuiLib@@UAEXI@Z @2427
    ?SetCornerImages@CContainerUI@DuiLib@@QAEXPB_W000@Z @2428
    ?SetCreateExtControlCallback@DuiLib@@YAXP6APAVCControlUI@1@PB_W@Z@Z @2429
    ?SetCurrencyFormat@CRichEditUI@DuiLib@@QAEX_N@Z @2430
    ?SetCurrentPath@CPaintManagerUI@DuiLib@@SAXPB_W@Z @2431
    ?SetCurrentSplitter@CPaintManagerUI@DuiLib@@AAEXPAVCSplitterUI@2@@Z @2432
    ?SetCursor@CControlUI@DuiLib@@UAEXPB_W@Z @2433
    ?SetCursorOnSplitter@CSplitterUI@DuiLib@@AAEXXZ @2434
    ?SetCustomCursor@CComboUI@DuiLib@@QAEXPB_W@Z @2435
    ?SetDarkness@CShadowUI@DuiLib@@QAE_NI@Z @2436
    ?SetDebugEnableTrackingFocus@CControlUI@DuiLib@@SAX_N@Z @2437
    ?SetDefaultCharFormat@CRichEditUI@DuiLib@@QAE_NAAUCHARFORMAT2W@@@Z @2438
    ?SetDefaultDisabledColor@CPaintManagerUI@DuiLib@@QAEXK@Z @2439
    ?SetDefaultFont@CPaintManagerUI@DuiLib@@QAEXPB_WH_N11@Z @2440
    ?SetDefaultFontColor@CPaintManagerUI@DuiLib@@QAEXK@Z @2441
    ?SetDefaultFontSize@CPaintManagerUI@DuiLib@@AAEXH@Z @2442
    ?SetDefaultLinkFontColor@CPaintManagerUI@DuiLib@@QAEXK@Z @2443
    ?SetDefaultLinkHoverFontColor@CPaintManagerUI@DuiLib@@QAEXK@Z @2444
    ?SetDefaultLoaderManager@CResManager@DuiLib@@SAXABV?$shared_ptr@VIResLoaderManager@DuiLib@@@std@@@Z @2445
    ?SetDefaultSHDragImageBitmap@CPaintManagerUI@DuiLib@@QAEXPAVBitmap@Gdiplus@@@Z @2446
    ?SetDefaultSelectedBkColor@CPaintManagerUI@DuiLib@@QAEXK@Z @2447
    ?SetDelayCreate@CActiveXUI@DuiLib@@QAEX_N@Z @2448
    ?SetDelayScrollAnimate@CContainerUI@DuiLib@@IAEXHH@Z @2449
    ?SetDelayedDestroy@CContainerUI@DuiLib@@UAEX_N@Z @2450
    ?SetDisabledImage@CButtonLayoutUI@DuiLib@@QAEXPB_W@Z @2451
    ?SetDisabledImage@CButtonUI@DuiLib@@QAEXPB_W@Z @2452
    ?SetDisabledImage@CComboUI@DuiLib@@QAEXPB_W@Z @2453
    ?SetDisabledImage@CEditUI@DuiLib@@QAEXPB_W@Z @2454
    ?SetDisabledItemBkColor@CComboUI@DuiLib@@QAEXK@Z @2455
    ?SetDisabledItemBkColor@CListUI@DuiLib@@QAEXK@Z @2456
    ?SetDisabledItemImage@CComboUI@DuiLib@@QAEXPB_W@Z @2457
    ?SetDisabledItemImage@CListUI@DuiLib@@QAEXPB_W@Z @2458
    ?SetDisabledItemTextColor@CComboUI@DuiLib@@QAEXK@Z @2459
    ?SetDisabledItemTextColor@CListUI@DuiLib@@QAEXK@Z @2460
    ?SetDisabledTextColor@CLabelUI@DuiLib@@QAEXK@Z @2461
    ?SetDisabledTextColor@CMenuElementUI@DuiLib@@QAEXK@Z @2462
    ?SetDpFixedHeight@CControlUI@DuiLib@@UAEXH@Z @2463
    ?SetDpFixedWidth@CControlUI@DuiLib@@UAEXH@Z @2464
    ?SetDpFixedXY@CControlUI@DuiLib@@UAEXUtagSIZE@@@Z @2465
    ?SetDpMaxHeight@CControlUI@DuiLib@@UAEXH@Z @2466
    ?SetDpMaxWidth@CControlUI@DuiLib@@UAEXH@Z @2467
    ?SetDpMinHeight@CControlUI@DuiLib@@UAEXH@Z @2468
    ?SetDpMinWidth@CControlUI@DuiLib@@UAEXH@Z @2469
    ?SetDpPadding@CControlUI@DuiLib@@UAEXUtagRECT@@@Z @2470
    ?SetDpPos@CControlUI@DuiLib@@UAEXUtagRECT@@@Z @2471
    ?SetDpRelativeParentSize@CControlUI@DuiLib@@UAEXUtagSIZE@@@Z @2472
    ?SetDpRelativePos@CControlUI@DuiLib@@UAEXUtagSIZE@@0@Z @2473
    ?SetDragTargetDelegate@CPaintManagerUI@DuiLib@@QAEXPAVDragTargetDelegate@2@@Z @2474
    ?SetDragable@CListHeaderItemUI@DuiLib@@QAEX_N@Z @2475
    ?SetDropAcceptFile@CRichEditUI@DuiLib@@QAE_N_N@Z @2476
    ?SetDropBoxAttributeList@CComboUI@DuiLib@@QAEXPB_W@Z @2477
    ?SetDropBoxSize@CComboUI@DuiLib@@QAEXUtagSIZE@@@Z @2478
    ?SetDropTargetDelegate@CControlUI@DuiLib@@QAEXPAVIDuiDropTarget@2@@Z @2479
    ?SetDropTargetEnable@CControlUI@DuiLib@@UAEX_N@Z @2480
    ?SetDuiLogger@DuiLib@@YAXPAVLogger@logger@base@weworklocal@@@Z @2481
    ?SetEmotionTips@EmotionManager@DuiLib@@QAEXPB_W@Z @2482
    ?SetEnableCaret@CEditUI@DuiLib@@QAEX_N@Z @2483
    ?SetEnableCaret@CRichEditUI@DuiLib@@QAEX_N@Z @2484
    ?SetEnableScrollAnimate@CContainerUI@DuiLib@@QAEX_N@Z @2485
    ?SetEnabled@CButtonLayoutUI@DuiLib@@UAEX_N@Z @2486
    ?SetEnabled@CButtonUI@DuiLib@@UAEX_N@Z @2487
    ?SetEnabled@CComboUI@DuiLib@@UAEX_N@Z @2488
    ?SetEnabled@CControlUI@DuiLib@@UAEX_N@Z @2489
    ?SetEnabled@CEditUI@DuiLib@@UAEX_N@Z @2490
    ?SetEnabled@CListContainerElementUI@DuiLib@@UAEX_N@Z @2491
    ?SetEnabled@CListElementUI@DuiLib@@UAEX_N@Z @2492
    ?SetEnabled@CListHeaderItemUI@DuiLib@@UAEX_N@Z @2493
    ?SetEnabled@COptionUI@DuiLib@@UAEX_N@Z @2494
    ?SetEnabled@CScrollBarUI@DuiLib@@UAEX_N@Z @2495
    ?SetEnabled@CSliderUI@DuiLib@@UAEX_N@Z @2496
    ?SetEnabledEffect@CLabelUI@DuiLib@@QAEX_N@Z @2497
    ?SetEnabledShadow@CLabelUI@DuiLib@@QAEX_N@Z @2498
    ?SetEnabledShowToolTips@CControlUI@DuiLib@@QAEX_N@Z @2499
    ?SetEnabledStroke@CLabelUI@DuiLib@@QAEX_N@Z @2500
    ?SetEscapeKeyEnabled@WindowImplBase@DuiLib@@QAEX_N@Z @2501
    ?SetEventClickObject@CPaintManagerUI@DuiLib@@QAEXPAVCControlUI@2@@Z @2502
    ?SetEventListener@CRichEditCustomerUI@DuiLib@@QAEXPAVIRichEditEventListener@2@@Z @2503
    ?SetEventMask@CRichEditUI@DuiLib@@QAEKK@Z @2504
    ?SetFixedHeight@CControlUI@DuiLib@@UAEXH@Z @2505
    ?SetFixedWidth@CControlUI@DuiLib@@UAEXH@Z @2506
    ?SetFixedXY@CControlUI@DuiLib@@UAEXUtagSIZE@@@Z @2507
    ?SetFlexAlignSelf@CControlUI@DuiLib@@UAEXH@Z @2508
    ?SetFlexGrow@CControlUI@DuiLib@@UAEXH@Z @2509
    ?SetFlexOrder@CControlUI@DuiLib@@UAEXH@Z @2510
    ?SetFlexShrink@CControlUI@DuiLib@@UAEXH@Z @2511
    ?SetFloat@CControlUI@DuiLib@@UAEX_N@Z @2512
    ?SetFloatPos@CContainerUI@DuiLib@@MAEXH@Z @2513
    ?SetFloatPos@CContainerUI@DuiLib@@MAEXPAVCControlUI@2@@Z @2514
    ?SetFocus@CControlUI@DuiLib@@UAEXXZ @2515
    ?SetFocus@CPaintManagerUI@DuiLib@@QAEXPAVCControlUI@2@_N@Z @2516
    ?SetFocus@CScrollBarUI@DuiLib@@UAEXXZ @2517
    ?SetFocusBorderColor@CControlUI@DuiLib@@QAEXK@Z @2518
    ?SetFocusNeeded@CPaintManagerUI@DuiLib@@QAEXPAVCControlUI@2@@Z @2519
    ?SetFocusToParentWhenClose@CPaintManagerUI@DuiLib@@QAEX_N@Z @2520
    ?SetFocusedImage@CButtonLayoutUI@DuiLib@@QAEXPB_W@Z @2521
    ?SetFocusedImage@CButtonUI@DuiLib@@QAEXPB_W@Z @2522
    ?SetFocusedImage@CComboUI@DuiLib@@QAEXPB_W@Z @2523
    ?SetFocusedImage@CEditUI@DuiLib@@QAEXPB_W@Z @2524
    ?SetFocusedImage@CListHeaderItemUI@DuiLib@@QAEXPB_W@Z @2525
    ?SetFocusedTextColor@CButtonUI@DuiLib@@QAEXK@Z @2526
    ?SetFont@CLabelUI@DuiLib@@QAEXH@Z @2527
    ?SetFont@CLabelUI@DuiLib@@QAEXPB_W@Z @2528
    ?SetFont@CListHeaderItemUI@DuiLib@@QAEXH@Z @2529
    ?SetFont@CListHeaderItemUI@DuiLib@@QAEXPB_W@Z @2530
    ?SetFont@CRichEditUI@DuiLib@@QAEXH@Z @2531
    ?SetFont@CRichEditUI@DuiLib@@QAEXPB_W@Z @2532
    ?SetFont@CRichEditUI@DuiLib@@QAEXPB_WH_N11@Z @2533
    ?SetFontSize@CLabelUI@DuiLib@@QAEXH@Z @2534
    ?SetFontSize@CLabelUI@DuiLib@@QAEXH_N@Z @2535
    ?SetFontSize@CListHeaderItemUI@DuiLib@@QAEXH@Z @2536
    ?SetFontSize@CRichEditUI@DuiLib@@QAEXH@Z @2537
    ?SetFontSizeOffSet@EmotionManager@DuiLib@@QAEXH@Z @2538
    ?SetForeImage@CButtonLayoutUI@DuiLib@@QAEXPB_W@Z @2539
    ?SetForeImage@CButtonUI@DuiLib@@QAEXPB_W@Z @2540
    ?SetForeImage@COptionUI@DuiLib@@QAEXPB_W@Z @2541
    ?SetForeImage@CProgressUI@DuiLib@@QAEXPB_W@Z @2542
    ?SetGifTimer@CGifAnimUI@DuiLib@@AAEXXZ @2543
    ?SetGlobalEnableScrollAnimate@CContainerUI@DuiLib@@SAX_N@Z @2544
    ?SetGradientAngle@CLabelUI@DuiLib@@QAEXH@Z @2545
    ?SetGradientLength@CLabelUI@DuiLib@@QAEXH@Z @2546
    ?SetGroup@COptionUI@DuiLib@@QAEXPB_W@Z @2547
    ?SetHSL@CPaintManagerUI@DuiLib@@SAX_NFFF@Z @2548
    ?SetHasIconArea@CMenuElementUI@DuiLib@@QAEX_N@Z @2549
    ?SetHeight@CSplitterUI@DuiLib@@QAEXH@Z @2550
    ?SetHeightType@CPaintManagerUI@DuiLib@@QAEXW4MeasureType@2@@Z @2551
    ?SetHideSelection@CRichEditUI@DuiLib@@QAEX_N@Z @2552
    ?SetHintColor@CRichEditUI@DuiLib@@QAEXK@Z @2553
    ?SetHintText@CRichEditUI@DuiLib@@QAEXPB_W@Z @2554
    ?SetHole@CShadowUI@DuiLib@@QAE_N_N@Z @2555
    ?SetHoleInset@CShadowUI@DuiLib@@QAEXUtagRECT@@@Z @2556
    ?SetHomePage@CWebBrowserUI@DuiLib@@QAEXPB_W@Z @2557
    ?SetHorizontal@CProgressUI@DuiLib@@QAEX_N@Z @2558
    ?SetHorizontal@CScrollBarUI@DuiLib@@QAEX_N@Z @2559
    ?SetHorizontal@CSplitterUI@DuiLib@@AAEX_N@Z @2560
    ?SetHost@IRichEditCustomCallback@DuiLib@@UAEXPAVIRichEditHost@2@@Z @2561
    ?SetHost@IRichEditHost@DuiLib@@UAEXPAVCRichEditUI@2@@Z @2562
    ?SetHotBkColor@CButtonLayoutUI@DuiLib@@QAEXK@Z @2563
    ?SetHotBkColor@CButtonUI@DuiLib@@QAEXK@Z @2564
    ?SetHotForeImage@CButtonLayoutUI@DuiLib@@QAEXPB_W@Z @2565
    ?SetHotForeImage@CButtonUI@DuiLib@@QAEXPB_W@Z @2566
    ?SetHotImage@CButtonLayoutUI@DuiLib@@QAEXPB_W@Z @2567
    ?SetHotImage@CButtonUI@DuiLib@@QAEXPB_W@Z @2568
    ?SetHotImage@CComboUI@DuiLib@@QAEXPB_W@Z @2569
    ?SetHotImage@CEditUI@DuiLib@@QAEXPB_W@Z @2570
    ?SetHotImage@CListHeaderItemUI@DuiLib@@QAEXPB_W@Z @2571
    ?SetHotItemBkColor@CComboUI@DuiLib@@QAEXK@Z @2572
    ?SetHotItemBkColor@CListUI@DuiLib@@QAEXK@Z @2573
    ?SetHotItemImage@CComboUI@DuiLib@@QAEXPB_W@Z @2574
    ?SetHotItemImage@CListUI@DuiLib@@QAEXPB_W@Z @2575
    ?SetHotItemTextColor@CComboUI@DuiLib@@QAEXK@Z @2576
    ?SetHotItemTextColor@CListUI@DuiLib@@QAEXK@Z @2577
    ?SetHotSelectedItemImage@CComboUI@DuiLib@@QAEXPB_W@Z @2578
    ?SetHotTextColor@CButtonUI@DuiLib@@QAEXK@Z @2579
    ?SetHotWidth@CSplitterUI@DuiLib@@QAEXH@Z @2580
    ?SetHoverBkColor2@CControlUI@DuiLib@@QAEXK@Z @2581
    ?SetHoverBkColor3@CControlUI@DuiLib@@QAEXK@Z @2582
    ?SetHoverBkColor@CControlUI@DuiLib@@QAEXK@Z @2583
    ?SetHoverControl@CPaintManagerUI@DuiLib@@QAEXPAVCControlUI@2@@Z @2584
    ?SetHoverImage@CControlUI@DuiLib@@QAEXPB_W@Z @2585
    ?SetHoverTime@CPaintManagerUI@DuiLib@@QAEXK@Z @2586
    ?SetIcon@CMenuElementUI@DuiLib@@QAEXPB_W@Z @2587
    ?SetIcon@CWindowWnd@DuiLib@@QAEXI@Z @2588
    ?SetIconOffset@CMenuElementUI@DuiLib@@QAEXUtagPOINT@@@Z @2589
    ?SetIconSize@CMenuElementUI@DuiLib@@QAEXJJ@Z @2590
    ?SetImage@CShadowUI@DuiLib@@QAE_NPB_W@Z @2591
    ?SetIndex@CListContainerElementUI@DuiLib@@UAEXH@Z @2592
    ?SetIndex@CListElementUI@DuiLib@@UAEXH@Z @2593
    ?SetInitSize@CPaintManagerUI@DuiLib@@QAEXHH@Z @2594
    ?SetInnerCornerColor@CContainerUI@DuiLib@@QAEXK@Z @2595
    ?SetInnerShadowWidth@CContainerUI@DuiLib@@QAEXH@Z @2596
    ?SetInsertPointAtPosition@CRichEditUI@DuiLib@@QAEXABUtagPOINT@@@Z @2597
    ?SetInset@CContainerUI@DuiLib@@UAEXUtagRECT@@@Z @2598
    ?SetInstance@CPaintManagerUI@DuiLib@@SAXPAUHINSTANCE__@@@Z @2599
    ?SetInternVisible@CActiveXUI@DuiLib@@UAEX_N@Z @2600
    ?SetInternVisible@CContainerUI@DuiLib@@UAEX_N@Z @2601
    ?SetInternVisible@CControlUI@DuiLib@@UAEX_N@Z @2602
    ?SetInternVisible@CEditUI@DuiLib@@UAEX_N@Z @2603
    ?SetIsClosing@CMenuWnd@DuiLib@@IAEXXZ @2604
    ?SetIsLoopEnabled@CGifAnimUI@DuiLib@@QAEX_N@Z @2605
    ?SetIsPinBottom@CContainerUI@DuiLib@@QAEX_N@Z @2606
    ?SetItemBkColor@CComboUI@DuiLib@@QAEXK@Z @2607
    ?SetItemBkColor@CListUI@DuiLib@@QAEXK@Z @2608
    ?SetItemBkImage@CComboUI@DuiLib@@QAEXPB_W@Z @2609
    ?SetItemBkImage@CListUI@DuiLib@@QAEXPB_W@Z @2610
    ?SetItemCheckBox@CTreeViewUI@DuiLib@@UAE_N_NPAVCTreeNodeUI@2@@Z @2611
    ?SetItemFont@CComboUI@DuiLib@@QAEXH@Z @2612
    ?SetItemFont@CComboUI@DuiLib@@QAEXPB_W@Z @2613
    ?SetItemFont@CListUI@DuiLib@@QAEXH@Z @2614
    ?SetItemHotTextColor@CTreeNodeUI@DuiLib@@QAEXK@Z @2615
    ?SetItemHotTextColor@CTreeViewUI@DuiLib@@UAEXK@Z @2616
    ?SetItemIndex@CComboUI@DuiLib@@UAE_NPAVCControlUI@2@H@Z @2617
    ?SetItemIndex@CContainerUI@DuiLib@@UAE_NPAVCControlUI@2@H@Z @2618
    ?SetItemIndex@CListUI@DuiLib@@UAE_NPAVCControlUI@2@H@Z @2619
    ?SetItemIndex@CMenuUI@DuiLib@@UAE_NPAVCControlUI@2@H@Z @2620
    ?SetItemLineColor@CComboUI@DuiLib@@QAEXK@Z @2621
    ?SetItemLineColor@CListUI@DuiLib@@QAEXK@Z @2622
    ?SetItemLineHeight@CListUI@DuiLib@@QAEXH@Z @2623
    ?SetItemMinWidth@CTreeViewUI@DuiLib@@UAEXI@Z @2624
    ?SetItemShowHtml@CComboUI@DuiLib@@QAEX_N@Z @2625
    ?SetItemShowHtml@CListUI@DuiLib@@QAEX_N@Z @2626
    ?SetItemSize@CTileLayoutUI@DuiLib@@QAEXUtagSIZE@@@Z @2627
    ?SetItemText@CTreeNodeUI@DuiLib@@QAEXPB_W@Z @2628
    ?SetItemTextColor@CComboUI@DuiLib@@QAEXK@Z @2629
    ?SetItemTextColor@CListUI@DuiLib@@QAEXK@Z @2630
    ?SetItemTextColor@CTreeNodeUI@DuiLib@@QAEXK@Z @2631
    ?SetItemTextColor@CTreeViewUI@DuiLib@@UAEXK@Z @2632
    ?SetItemTextPadding@CComboUI@DuiLib@@QAEXUtagRECT@@@Z @2633
    ?SetItemTextPadding@CListUI@DuiLib@@QAEXUtagRECT@@@Z @2634
    ?SetItemTextStyle@CComboUI@DuiLib@@QAEXI@Z @2635
    ?SetItemTextStyle@CListUI@DuiLib@@QAEXI@Z @2636
    ?SetKeyActiveMenuWnd@ObserverImpl@DuiLib@@UAEXPAVReceiverImplBase@2@@Z @2637
    ?SetKeyboardEnabled@CControlUI@DuiLib@@UAEX_N@Z @2638
    ?SetLanguageID@CPaintManagerUI@DuiLib@@SAXK@Z @2639
    ?SetLeftBorderSize@CControlUI@DuiLib@@QAEXH@Z @2640
    ?SetLimitText@CRichEditUI@DuiLib@@QAEXH@Z @2641
    ?SetLineColor@CMenuElementUI@DuiLib@@QAEXK@Z @2642
    ?SetLinePadding@CMenuElementUI@DuiLib@@QAEXUtagRECT@@@Z @2643
    ?SetLineSize@CScrollBarUI@DuiLib@@QAEXH@Z @2644
    ?SetLineType@CMenuElementUI@DuiLib@@QAEXXZ @2645
    ?SetListBottomEmptyHeight@CListBodyUI@DuiLib@@QAEXH@Z @2646
    ?SetListBottomEmptyHeight@CListUI@DuiLib@@QAEXH@Z @2647
    ?SetListener@CHeaderControlUI@DuiLib@@QAEXPAVCHeaderControlListener@2@@Z @2648
    ?SetLoopSelect@CContainerUI@DuiLib@@QAEX_N@Z @2649
    ?SetManager@CContainerUI@DuiLib@@UAEXPAVCPaintManagerUI@2@PAVCControlUI@2@_N@Z @2650
    ?SetManager@CControlUI@DuiLib@@UAEXPAVCPaintManagerUI@2@PAV12@_N@Z @2651
    ?SetManager@CHeaderControlUI@DuiLib@@UAEXPAVCPaintManagerUI@2@PAVCControlUI@2@_N@Z @2652
    ?SetManager@COptionUI@DuiLib@@UAEXPAVCPaintManagerUI@2@PAVCControlUI@2@_N@Z @2653
    ?SetManager@CRichEditUI@DuiLib@@UAEXPAVCPaintManagerUI@2@PAVCControlUI@2@_N@Z @2654
    ?SetManager@CSplitterUI@DuiLib@@UAEXPAVCPaintManagerUI@2@PAVCControlUI@2@_N@Z @2655
    ?SetManger@ObserverImpl@DuiLib@@UAEXPAVCPaintManagerUI@2@@Z @2656
    ?SetMaxChar@CEditUI@DuiLib@@QAEXI@Z @2657
    ?SetMaxChar@CRichEditUI@DuiLib@@QAEXH@Z @2658
    ?SetMaxCharLength@CEditUI@DuiLib@@QAEXI@Z @2659
    ?SetMaxHeight@CControlUI@DuiLib@@UAEXH@Z @2660
    ?SetMaxInfo@CPaintManagerUI@DuiLib@@QAEXHH@Z @2661
    ?SetMaxValue@CProgressUI@DuiLib@@QAEXH@Z @2662
    ?SetMaxWidth@CControlUI@DuiLib@@UAEXH@Z @2663
    ?SetMenuCallback@CMenuWnd@DuiLib@@QAEXPAVIMenuCallback@2@@Z @2664
    ?SetMenuCheckInfo@ObserverImpl@DuiLib@@UAEXPAV?$map@VCDuiString@DuiLib@@_NU?$less@VCDuiString@DuiLib@@@std@@V?$allocator@U?$pair@$$CBVCDuiString@DuiLib@@_N@std@@@4@@std@@@Z @2665
    ?SetMenuInset@CMenuWnd@DuiLib@@QAEXUtagRECT@@@Z @2666
    ?SetMenuWndCreator@CMenuWnd@DuiLib@@QAEXPAVIMenuWndCreatorCallback@2@@Z @2667
    ?SetMinHeight@CControlUI@DuiLib@@UAEXH@Z @2668
    ?SetMinInfo@CPaintManagerUI@DuiLib@@QAEXHH@Z @2669
    ?SetMinValue@CProgressUI@DuiLib@@QAEXH@Z @2670
    ?SetMinWidth@CControlUI@DuiLib@@UAEXH@Z @2671
    ?SetModify@CRichEditUI@DuiLib@@QBEX_N@Z @2672
    ?SetModuleName@CActiveXUI@DuiLib@@QAEXPB_W@Z @2673
    ?SetMoneyNumberOnly@CEditUI@DuiLib@@QAEX_N@Z @2674
    ?SetMouseChildEnabled@CContainerUI@DuiLib@@UAEX_N@Z @2675
    ?SetMouseEnabled@CContainerUI@DuiLib@@UAEX_N@Z @2676
    ?SetMouseEnabled@CControlUI@DuiLib@@UAEX_N@Z @2677
    ?SetMouseWheelAdjustFontSize@CRichEditUI@DuiLib@@QAE_N_N@Z @2678
    ?SetMultiExpanding@CListUI@DuiLib@@QAEX_N@Z @2679
    ?SetMultiSelect@CListUI@DuiLib@@QAEX_N@Z @2680
    ?SetName@CControlUI@DuiLib@@UAEXPB_W@Z @2681
    ?SetName@CMenuWnd@DuiLib@@QAEXABVCDuiString@2@@Z @2682
    ?SetNativeEditBkColor@CEditUI@DuiLib@@QAEXK@Z @2683
    ?SetNeedAdjustScroller@CContainerUI@DuiLib@@QAEX_N@Z @2684
    ?SetNeedOpenURLSpecially@CRichEditUI@DuiLib@@QAEX_N@Z @2685
    ?SetNextTabControl@CPaintManagerUI@DuiLib@@QAE_N_N@Z @2686
    ?SetNoResizeWhenNoChange@CTileLayoutUI@DuiLib@@IAEX_N@Z @2687
    ?SetNormalBkColor@CMenuElementUI@DuiLib@@QAEXK@Z @2688
    ?SetNormalImage@CButtonLayoutUI@DuiLib@@QAEXPB_W@Z @2689
    ?SetNormalImage@CButtonUI@DuiLib@@QAEXPB_W@Z @2690
    ?SetNormalImage@CComboUI@DuiLib@@QAEXPB_W@Z @2691
    ?SetNormalImage@CControlUI@DuiLib@@QAEXPB_W@Z @2692
    ?SetNormalImage@CEditUI@DuiLib@@QAEXPB_W@Z @2693
    ?SetNormalImage@CListHeaderItemUI@DuiLib@@QAEXPB_W@Z @2694
    ?SetNotSupportEmojiTips@EmotionManager@DuiLib@@QAEXPB_W@Z @2695
    ?SetNumberOnly@CEditUI@DuiLib@@QAEX_N@Z @2696
    ?SetOLECallback@CRichEditUI@DuiLib@@QAEHPAUIRichEditOleCallback@@@Z @2697
    ?SetOleCallback@CRichEditUI@DuiLib@@QAEHPAUIRichEditOleCallback@@@Z @2698
    ?SetOverflowX@CControlUI@DuiLib@@UAEXPB_W@Z @2699
    ?SetOverflowY@CControlUI@DuiLib@@UAEXPB_W@Z @2700
    ?SetOwner@CListContainerElementUI@DuiLib@@UAEXPAVCControlUI@2@@Z @2701
    ?SetOwner@CListElementUI@DuiLib@@UAEXPAVCControlUI@2@@Z @2702
    ?SetOwner@CListTextElementUI@DuiLib@@UAEXPAVCControlUI@2@@Z @2703
    ?SetOwner@CScrollBarUI@DuiLib@@QAEXPAVCContainerUI@2@@Z @2704
    ?SetOwnerWindow@CMenuUI@DuiLib@@QAEXPAVCMenuWnd@2@@Z @2705
    ?SetPadding@CControlUI@DuiLib@@UAEXUtagRECT@@@Z @2706
    ?SetParaFormat@CRichEditUI@DuiLib@@QAE_NAAUPARAFORMAT2@@@Z @2707
    ?SetParentNode@CTreeNodeUI@DuiLib@@QAEXPAV12@@Z @2708
    ?SetPassword@CRichEditUI@DuiLib@@QAEX_N@Z @2709
    ?SetPasswordChar@CEditUI@DuiLib@@QAEX_W@Z @2710
    ?SetPasswordMode@CEditUI@DuiLib@@QAEX_N@Z @2711
    ?SetPasteTextLimit@CRichEditUI@DuiLib@@QAEXH@Z @2712
    ?SetPercent@CListHeaderItemUI@DuiLib@@QAEXH@Z @2713
    ?SetPhoneNumberOnly@CEditUI@DuiLib@@QAEX_N@Z @2714
    ?SetPlaceHoldTextColor@CRichEditUI@DuiLib@@QAEXEEE@Z @2715
    ?SetPlaceHoldTextFontIndex@CRichEditUI@DuiLib@@QAEXH@Z @2716
    ?SetPlaceHoldTextPadding@CRichEditUI@DuiLib@@QAEXABUtagRECT@@@Z @2717
    ?SetPlaceHolderText@CRichEditUI@DuiLib@@QAEXPB_W@Z @2718
    ?SetPlaceholder@CComboUI@DuiLib@@QAEXPB_W@Z @2719
    ?SetPlaceholder@CEditUI@DuiLib@@QAEXPB_W@Z @2720
    ?SetPlaceholderColor@CEditUI@DuiLib@@QAEXK@Z @2721
    ?SetPlaceholderFont@CEditUI@DuiLib@@QAEXPB_W@Z @2722
    ?SetPoint@CMenuWnd@DuiLib@@QAEXUtagPOINT@@@Z @2723
    ?SetPos@CActiveXUI@DuiLib@@UAEXUtagRECT@@@Z @2724
    ?SetPos@CComboUI@DuiLib@@UAEXUtagRECT@@@Z @2725
    ?SetPos@CContainerUI@DuiLib@@UAEXUtagRECT@@@Z @2726
    ?SetPos@CControlUI@DuiLib@@UAEXUtagRECT@@@Z @2727
    ?SetPos@CEditUI@DuiLib@@UAEXUtagRECT@@@Z @2728
    ?SetPos@CFlexLayoutUI@DuiLib@@UAEXUtagRECT@@@Z @2729
    ?SetPos@CFlowLayoutUI@DuiLib@@UAEXUtagRECT@@@Z @2730
    ?SetPos@CHorizontalLayoutUI@DuiLib@@UAEXUtagRECT@@@Z @2731
    ?SetPos@CListBodyUI@DuiLib@@UAEXUtagRECT@@@Z @2732
    ?SetPos@CListUI@DuiLib@@UAEXUtagRECT@@@Z @2733
    ?SetPos@CMenuUI@DuiLib@@UAEXUtagRECT@@@Z @2734
    ?SetPos@CRichEditUI@DuiLib@@UAEXUtagRECT@@@Z @2735
    ?SetPos@CScrollBarUI@DuiLib@@UAEXUtagRECT@@@Z @2736
    ?SetPos@CSplitterUI@DuiLib@@UAEXUtagRECT@@@Z @2737
    ?SetPos@CTabLayoutUI@DuiLib@@UAEXUtagRECT@@@Z @2738
    ?SetPos@CTileLayoutUI@DuiLib@@UAEXUtagRECT@@@Z @2739
    ?SetPos@CVerticalLayoutUI@DuiLib@@UAEXUtagRECT@@@Z @2740
    ?SetPosition@CShadowUI@DuiLib@@QAE_NHH@Z @2741
    ?SetPostPaintIndex@CPaintManagerUI@DuiLib@@QAE_NPAVCControlUI@2@H@Z @2742
    ?SetPreserveWhitespace@CMarkup@DuiLib@@QAEX_N@Z @2743
    ?SetProperty@CWebBrowserUI@DuiLib@@SAJPAUIDispatch@@PA_WPAUtagVARIANT@@@Z @2744
    ?SetPushedImage@CButtonLayoutUI@DuiLib@@QAEXPB_W@Z @2745
    ?SetPushedImage@CButtonUI@DuiLib@@QAEXPB_W@Z @2746
    ?SetPushedImage@CComboUI@DuiLib@@QAEXPB_W@Z @2747
    ?SetPushedImage@CListHeaderItemUI@DuiLib@@QAEXPB_W@Z @2748
    ?SetPushedTextColor@CButtonUI@DuiLib@@QAEXK@Z @2749
    ?SetRailDisabledImage@CScrollBarUI@DuiLib@@QAEXPB_W@Z @2750
    ?SetRailHotImage@CScrollBarUI@DuiLib@@QAEXPB_W@Z @2751
    ?SetRailNormalImage@CScrollBarUI@DuiLib@@QAEXPB_W@Z @2752
    ?SetRailPushedImage@CScrollBarUI@DuiLib@@QAEXPB_W@Z @2753
    ?SetReadOnly@CDateTimeUI@DuiLib@@QAEX_N@Z @2754
    ?SetReadOnly@CEditUI@DuiLib@@QAEX_N@Z @2755
    ?SetReadOnly@CRichEditUI@DuiLib@@QAEX_N@Z @2756
    ?SetRect@DuiApi@@YAHPAUtagRECT@@HHHH@Z @2757
    ?SetRelativeParentSize@CControlUI@DuiLib@@UAEXUtagSIZE@@@Z @2758
    ?SetRelativePos@CControlUI@DuiLib@@UAEXUtagSIZE@@0@Z @2759
    ?SetRender@CRichEditCustomerUI@DuiLib@@QAEXPAVIRichEditRender@2@@Z @2760
    ?SetReplaceSel@CEditUI@DuiLib@@QAEXPB_W@Z @2761
    ?SetResLoaderManager@CResManager@DuiLib@@SAXPB_WABV?$shared_ptr@VIResLoaderManager@DuiLib@@@std@@@Z @2762
    ?SetReserveHeight@CButtonUI@DuiLib@@QAEXH@Z @2763
    ?SetReserveWidth@CButtonUI@DuiLib@@QAEXH@Z @2764
    ?SetResizable@CWindowWnd@DuiLib@@QAEX_N@Z @2765
    ?SetResourceDll@CPaintManagerUI@DuiLib@@SAXPAUHINSTANCE__@@@Z @2766
    ?SetResourcePath@CPaintManagerUI@DuiLib@@SAXPB_W@Z @2767
    ?SetResourceZip@CPaintManagerUI@DuiLib@@SAXPAXI@Z @2768
    ?SetResourceZip@CPaintManagerUI@DuiLib@@SAXPB_W_N@Z @2769
    ?SetRich@CRichEditUI@DuiLib@@QAEX_N@Z @2770
    ?SetRightBorderSize@CControlUI@DuiLib@@QAEXH@Z @2771
    ?SetRootPos@CPaintManagerUI@DuiLib@@AAEXUtagRECT@@@Z @2772
    ?SetRoundCorner@CPaintManagerUI@DuiLib@@QAEXHH@Z @2773
    ?SetRuntimeDebug@CPaintManagerUI@DuiLib@@QAEX_N@Z @2774
    ?SetSHDragImage@CPaintManagerUI@DuiLib@@QAEXPAVBitmap@Gdiplus@@@Z @2775
    ?SetScrollBarFloat@CScrollBarUI@DuiLib@@QAEX_N@Z @2776
    ?SetScrollBarPadding@CScrollBarUI@DuiLib@@QAEXH@Z @2777
    ?SetScrollBarSize@CScrollBarUI@DuiLib@@QAEXH@Z @2778
    ?SetScrollPos@CContainerUI@DuiLib@@UAEXUtagSIZE@@@Z @2779
    ?SetScrollPos@CListBodyUI@DuiLib@@UAEXUtagSIZE@@@Z @2780
    ?SetScrollPos@CListUI@DuiLib@@UAEXUtagSIZE@@@Z @2781
    ?SetScrollPos@CRichEditUI@DuiLib@@UAEXUtagSIZE@@@Z @2782
    ?SetScrollPos@CScrollBarUI@DuiLib@@QAEXH@Z @2783
    ?SetScrollRange@CScrollBarUI@DuiLib@@QAEXH@Z @2784
    ?SetScrollSelect@CListUI@DuiLib@@QAEX_N@Z @2785
    ?SetScrollStep@CListUI@DuiLib@@QAEXH@Z @2786
    ?SetScrollStepSize@CContainerUI@DuiLib@@QAEXH@Z @2787
    ?SetScrollWheelEnabled@CComboUI@DuiLib@@QAEX_N@Z @2788
    ?SetSel@CEditUI@DuiLib@@QAEXJJ@Z @2789
    ?SetSel@CRichEditUI@DuiLib@@QAEHAAU_charrange@@@Z @2790
    ?SetSel@CRichEditUI@DuiLib@@QAEHJJ@Z @2791
    ?SetSelAll@CEditUI@DuiLib@@QAEXXZ @2792
    ?SetSelAll@CRichEditUI@DuiLib@@QAEHXZ @2793
    ?SetSelAllWhenFocused@CEditUI@DuiLib@@QAEX_N@Z @2794
    ?SetSelItemHotTextColor@CTreeNodeUI@DuiLib@@QAEXK@Z @2795
    ?SetSelItemHotTextColor@CTreeViewUI@DuiLib@@UAEXK@Z @2796
    ?SetSelItemTextColor@CTreeNodeUI@DuiLib@@QAEXK@Z @2797
    ?SetSelItemTextColor@CTreeViewUI@DuiLib@@UAEXK@Z @2798
    ?SetSelNone@CRichEditUI@DuiLib@@QAEHXZ @2799
    ?SetSelectOnlyInButtonUp@CListContainerElementUI@DuiLib@@QAEX_N@Z @2800
    ?SetSelected@CControlUI@DuiLib@@UAEX_N@Z @2801
    ?SetSelected@COptionUI@DuiLib@@UAEX_N@Z @2802
    ?SetSelectedBkColor2@CControlUI@DuiLib@@QAEXK@Z @2803
    ?SetSelectedBkColor2@CMenuElementUI@DuiLib@@QAEXK@Z @2804
    ?SetSelectedBkColor3@CControlUI@DuiLib@@QAEXK@Z @2805
    ?SetSelectedBkColor@CControlUI@DuiLib@@QAEXK@Z @2806
    ?SetSelectedBkColor@CMenuElementUI@DuiLib@@QAEXK@Z @2807
    ?SetSelectedBkColor@COptionUI@DuiLib@@QAEXK@Z @2808
    ?SetSelectedDisabledImage@COptionUI@DuiLib@@QAEXPB_W@Z @2809
    ?SetSelectedFocusedImage@COptionUI@DuiLib@@QAEXPB_W@Z @2810
    ?SetSelectedHotImage@COptionUI@DuiLib@@QAEXPB_W@Z @2811
    ?SetSelectedImage@CControlUI@DuiLib@@QAEXPB_W@Z @2812
    ?SetSelectedImage@COptionUI@DuiLib@@QAEXPB_W@Z @2813
    ?SetSelectedItemBkColor@CComboUI@DuiLib@@QAEXK@Z @2814
    ?SetSelectedItemBkColor@CListUI@DuiLib@@QAEXK@Z @2815
    ?SetSelectedItemImage@CComboUI@DuiLib@@QAEXPB_W@Z @2816
    ?SetSelectedItemImage@CListUI@DuiLib@@QAEXPB_W@Z @2817
    ?SetSelectedItemTextColor@CComboUI@DuiLib@@QAEXK@Z @2818
    ?SetSelectedItemTextColor@CListUI@DuiLib@@QAEXK@Z @2819
    ?SetSelectedState@CListContainerElementUI@DuiLib@@QAE_N_N@Z @2820
    ?SetSelectedTextColor@CLabelUI@DuiLib@@QAEXK@Z @2821
    ?SetSelectedTextColor@COptionUI@DuiLib@@QAEXK@Z @2822
    ?SetSelectionCharFormat@CRichEditUI@DuiLib@@QAE_NAAUCHARFORMAT2W@@@Z @2823
    ?SetSepHeight@CVerticalLayoutUI@DuiLib@@QAEXH@Z @2824
    ?SetSepImage@CListHeaderItemUI@DuiLib@@QAEXPB_W@Z @2825
    ?SetSepImmMode@CHorizontalLayoutUI@DuiLib@@QAEX_N@Z @2826
    ?SetSepImmMode@CVerticalLayoutUI@DuiLib@@QAEX_N@Z @2827
    ?SetSepWidth@CHorizontalLayoutUI@DuiLib@@QAEXH@Z @2828
    ?SetSepWidth@CListHeaderItemUI@DuiLib@@QAEXH@Z @2829
    ?SetShadowCorner@CShadowUI@DuiLib@@QAE_NUtagRECT@@@Z @2830
    ?SetShadowInner@CShadowUI@DuiLib@@QAE_NH@Z @2831
    ?SetShadowOffset@CLabelUI@DuiLib@@QAEXHH@Z @2832
    ?SetSharpness@CShadowUI@DuiLib@@QAE_NI@Z @2833
    ?SetShiftSelectIndex@CListUI@DuiLib@@IAEXH_N@Z @2834
    ?SetShortcut@CControlUI@DuiLib@@UAEX_W@Z @2835
    ?SetShowButton1@CScrollBarUI@DuiLib@@QAEX_N@Z @2836
    ?SetShowButton2@CScrollBarUI@DuiLib@@QAEX_N@Z @2837
    ?SetShowEmoji@CLabelUI@DuiLib@@QAEX_N@Z @2838
    ?SetShowExplandIcon@CMenuElementUI@DuiLib@@QAEX_N@Z @2839
    ?SetShowHtml@CLabelUI@DuiLib@@QAEX_N@Z @2840
    ?SetShowHtml@CListContainerElementUI@DuiLib@@QAEX_N@Z @2841
    ?SetShowHtml@CListHeaderItemUI@DuiLib@@QAEX_N@Z @2842
    ?SetShowUpdateRect@CPaintManagerUI@DuiLib@@QAEX_N@Z @2843
    ?SetSize@CShadowUI@DuiLib@@QAE_NH@Z @2844
    ?SetSizeBox@CPaintManagerUI@DuiLib@@QAEXAAUtagRECT@@@Z @2845
    ?SetSplitterColor@CHeaderControlUI@DuiLib@@AAEXK@Z @2846
    ?SetSplitterWidth@CHeaderControlUI@DuiLib@@AAEXH@Z @2847
    ?SetStretchForeImage@CProgressUI@DuiLib@@QAEX_N@Z @2848
    ?SetStrokeColor@CLabelUI@DuiLib@@QAEXK@Z @2849
    ?SetSubControlFixedHeight@CContainerUI@DuiLib@@QAE_NPB_WH@Z @2850
    ?SetSubControlFixedWdith@CContainerUI@DuiLib@@QAE_NPB_WH@Z @2851
    ?SetSubControlText@CContainerUI@DuiLib@@QAE_NPB_W0@Z @2852
    ?SetSubControlUserData@CContainerUI@DuiLib@@QAE_NPB_W0@Z @2853
    ?SetSubControlsPos@CFlexLayoutUI@DuiLib@@MAEHABUtagRECT@@@Z @2854
    ?SetSubControlsPos@CFlowLayoutUI@DuiLib@@MAEHABUtagRECT@@@Z @2855
    ?SetSubControlsPos@CHorizontalLayoutUI@DuiLib@@MAEHABUtagRECT@@@Z @2856
    ?SetSupportBkState@COptionUI@DuiLib@@QAEX_N@Z @2857
    ?SetTabOrder@CControlUI@DuiLib@@QAEXH@Z @2858
    ?SetTabStop@CButtonUI@DuiLib@@QAEX_N@Z @2859
    ?SetTabStop@CContainerUI@DuiLib@@UAEX_N@Z @2860
    ?SetTabStop@CEditUI@DuiLib@@QAEX_N@Z @2861
    ?SetTag@CControlUI@DuiLib@@UAEXI@Z @2862
    ?SetText@CControlUI@DuiLib@@UAEXPB_W@Z @2863
    ?SetText@CEditUI@DuiLib@@UAEXPB_W@Z @2864
    ?SetText@CLabelUI@DuiLib@@UAEXPB_W@Z @2865
    ?SetText@CListTextElementUI@DuiLib@@QAEXHPB_W@Z @2866
    ?SetText@CRichEditUI@DuiLib@@UAEXPB_W@Z @2867
    ?SetTextByDefaultString@CRichEditUI@DuiLib@@IAEXXZ @2868
    ?SetTextCallback@CListUI@DuiLib@@UAEXPAVIListCallbackUI@2@@Z @2869
    ?SetTextColor1@CLabelUI@DuiLib@@QAEXK@Z @2870
    ?SetTextColor@CLabelUI@DuiLib@@UAEXK@Z @2871
    ?SetTextColor@CListHeaderItemUI@DuiLib@@QAEXK@Z @2872
    ?SetTextColor@CRichEditUI@DuiLib@@QAEXK@Z @2873
    ?SetTextPadding@CComboUI@DuiLib@@QAEXUtagRECT@@@Z @2874
    ?SetTextPadding@CLabelUI@DuiLib@@QAEXUtagRECT@@@Z @2875
    ?SetTextPadding@CListHeaderItemUI@DuiLib@@QAEXUtagRECT@@@Z @2876
    ?SetTextRenderingHintAntiAlias@CLabelUI@DuiLib@@QAEXH@Z @2877
    ?SetTextShadowColorA@CLabelUI@DuiLib@@QAEXK@Z @2878
    ?SetTextShadowColorB@CLabelUI@DuiLib@@QAEXK@Z @2879
    ?SetTextStyle@CLabelUI@DuiLib@@QAEXI@Z @2880
    ?SetTextStyle@CListHeaderItemUI@DuiLib@@QAEXI@Z @2881
    ?SetThumbDisabledImage@CScrollBarUI@DuiLib@@QAEXPB_W@Z @2882
    ?SetThumbHotImage@CScrollBarUI@DuiLib@@QAEXPB_W@Z @2883
    ?SetThumbHotImage@CSliderUI@DuiLib@@QAEXPB_W@Z @2884
    ?SetThumbImage@CSliderUI@DuiLib@@QAEXPB_W@Z @2885
    ?SetThumbMinLen@CScrollBarUI@DuiLib@@QAEXH@Z @2886
    ?SetThumbNormalImage@CScrollBarUI@DuiLib@@QAEXPB_W@Z @2887
    ?SetThumbPushedImage@CScrollBarUI@DuiLib@@QAEXPB_W@Z @2888
    ?SetThumbPushedImage@CSliderUI@DuiLib@@QAEXPB_W@Z @2889
    ?SetThumbSize@CSliderUI@DuiLib@@QAEXUtagSIZE@@@Z @2890
    ?SetTime@CDateTimeUI@DuiLib@@QAEXPAU_SYSTEMTIME@@@Z @2891
    ?SetTimer@CPaintManagerUI@DuiLib@@QAE_NPAVCControlUI@2@II@Z @2892
    ?SetToolTip@CControlUI@DuiLib@@UAEXPB_W@Z @2893
    ?SetToolTipWidth@CControlUI@DuiLib@@UAEXH@Z @2894
    ?SetTopBorderSize@CControlUI@DuiLib@@QAEXH@Z @2895
    ?SetTopLeftCornerImage@CContainerUI@DuiLib@@IAEXPB_W@Z @2896
    ?SetTopRightCornerImage@CContainerUI@DuiLib@@IAEXPB_W@Z @2897
    ?SetTransShadow1@CLabelUI@DuiLib@@QAEXH@Z @2898
    ?SetTransShadow@CLabelUI@DuiLib@@QAEXH@Z @2899
    ?SetTransStroke@CLabelUI@DuiLib@@QAEXH@Z @2900
    ?SetTransText1@CLabelUI@DuiLib@@QAEXH@Z @2901
    ?SetTransText@CLabelUI@DuiLib@@QAEXH@Z @2902
    ?SetTransparent@CPaintManagerUI@DuiLib@@QAEXH@Z @2903
    ?SetTreeView@CTreeNodeUI@DuiLib@@QAEXPAVCTreeViewUI@2@@Z @2904
    ?SetUnableDisplayTips@EmotionManager@DuiLib@@QAEXPB_W@Z @2905
    ?SetUndoLimit@CRichEditUI@DuiLib@@QAEII@Z @2906
    ?SetUseDefaultSysCommandProc@WindowImplBase@DuiLib@@MAEX_N@Z @2907
    ?SetUseDynamicAdjustScroller@CContainerUI@DuiLib@@QAEX_N@Z @2908
    ?SetUseSelectedTextColor@CControlUI@DuiLib@@UAEX_N@Z @2909
    ?SetUserData@CControlUI@DuiLib@@UAEXABVCDuiString@2@@Z @2910
    ?SetValue@CProgressUI@DuiLib@@QAEXH@Z @2911
    ?SetVirtualSeparator@CPaintManagerUI@DuiLib@@QAEXPAVIVirtualSeparatorUI@2@@Z @2912
    ?SetVirtualWnd@CControlUI@DuiLib@@QAEXPB_W@Z @2913
    ?SetVisible@CActiveXUI@DuiLib@@UAEX_N@Z @2914
    ?SetVisible@CContainerUI@DuiLib@@UAEX_N@Z @2915
    ?SetVisible@CControlUI@DuiLib@@UAEX_N@Z @2916
    ?SetVisible@CEditUI@DuiLib@@UAEX_N@Z @2917
    ?SetVisible@CGifAnimUI@DuiLib@@UAEX_N@Z @2918
    ?SetVisible@CListContainerElementUI@DuiLib@@UAEX_N@Z @2919
    ?SetVisible@CListElementUI@DuiLib@@UAEX_N@Z @2920
    ?SetVisible@CRichEditUI@DuiLib@@UAEX_N@Z @2921
    ?SetVisible@CScrollBarUI@DuiLib@@UAEX_N@Z @2922
    ?SetVisibleCheckBtn@CTreeNodeUI@DuiLib@@QAEX_N@Z @2923
    ?SetVisibleCheckBtn@CTreeViewUI@DuiLib@@UAEX_N@Z @2924
    ?SetVisibleFolderBtn@CTreeNodeUI@DuiLib@@QAEX_N@Z @2925
    ?SetVisibleFolderBtn@CTreeViewUI@DuiLib@@UAEX_N@Z @2926
    ?SetVisibleTag@CTreeNodeUI@DuiLib@@QAEX_N@Z @2927
    ?SetWantCtrlReturn@CRichEditUI@DuiLib@@QAEX_N@Z @2928
    ?SetWantReturn@CRichEditUI@DuiLib@@QAEX_N@Z @2929
    ?SetWantTab@CRichEditUI@DuiLib@@QAEX_N@Z @2930
    ?SetWebBrowserEventHandler@CWebBrowserUI@DuiLib@@QAEXPAVCWebBrowserEventHandler@2@@Z @2931
    ?SetWidth@CSplitterUI@DuiLib@@QAEXH@Z @2932
    ?SetWidthType@CPaintManagerUI@DuiLib@@QAEXW4MeasureType@2@@Z @2933
    ?SetWinStyle@CRichEditUI@DuiLib@@QAEXJ@Z @2934
    ?SetWindowAbsolutePos@DuiApi@@YAHPAUHWND__@@0HHHHI@Z @2935
    ?SetWindowHeight@CWindowWnd@DuiLib@@QAEXH@Z @2936
    ?SetWindowOrgEx@DuiApi@@YAHPAUHDC__@@HHPAUtagPOINT@@@Z @2937
    ?SetWindowPos@DuiApi@@YAHPAUHWND__@@0HHHHI@Z @2938
    ?SetWindowPosition@CWindowWnd@DuiLib@@QAEXHH@Z @2939
    ?SetWindowSize@CWindowWnd@DuiLib@@QAEXHH@Z @2940
    ?SetWindowTitle@CWindowWnd@DuiLib@@QAEXPB_W@Z @2941
    ?SetWindowWidth@CWindowWnd@DuiLib@@QAEXH@Z @2942
    ?SetWordCharFormat@CRichEditUI@DuiLib@@QAE_NAAUCHARFORMAT2W@@@Z @2943
    ?SetWordWrap@CRichEditUI@DuiLib@@QAEX_N@Z @2944
    ?SetZoom@CRichEditUI@DuiLib@@QAE_NHH@Z @2945
    ?SetZoomOff@CRichEditUI@DuiLib@@QAE_NXZ @2946
    ?ShowContextMenu@CWebBrowserUI@DuiLib@@UAGJKPAUtagPOINT@@PAUIUnknown@@PAUIDispatch@@@Z @2947
    ?ShowInnerCorner@CContainerUI@DuiLib@@QAEX_N@Z @2948
    ?ShowInnerShadow@CContainerUI@DuiLib@@QAEXH@Z @2949
    ?ShowModal@CWindowWnd@DuiLib@@QAEIXZ @2950
    ?ShowPlaceHoldText@CRichEditUI@DuiLib@@IAEXH@Z @2951
    ?ShowShadow@CShadowUI@DuiLib@@QAEX_N@Z @2952
    ?ShowUI@CWebBrowserUI@DuiLib@@UAGJKPAUIOleInPlaceActiveObject@@PAUIOleCommandTarget@@PAUIOleInPlaceFrame@@PAUIOleInPlaceUIWindow@@@Z @2953
    ?ShowWindow@CWindowWnd@DuiLib@@QAEX_N0@Z @2954
    ?SmallFormat@CDuiString@DuiLib@@QAAHPB_WZZ @2955
    ?SortItems@CListBodyUI@DuiLib@@QAEHP6GHIII@ZI@Z @2956
    ?SortItems@CListUI@DuiLib@@QAEHP6GHIII@ZI@Z @2957
    ?StartHookMouse@CPaintManagerUI@DuiLib@@SAXXZ @2958
    ?StopGif@CGifAnimUI@DuiLib@@QAEXXZ @2959
    ?StreamIn@CRichEditUI@DuiLib@@QAEJHAAU_editstream@@@Z @2960
    ?StreamOut@CRichEditUI@DuiLib@@QAEJHAAU_editstream@@@Z @2961
    ?StretchBlt@DuiApi@@YAHPAUHDC__@@HHHH0HHHHK@Z @2962
    ?Subclass@CWindowWnd@DuiLib@@QAEPAUHWND__@@PAU3@@Z @2963
    ?SystemParametersInfoW@DuiApi@@YAHIIPAXI@Z @2964
    ?Term@CPaintManagerUI@DuiLib@@SAXXZ @2965
    ?TextOutA@DuiApi@@YAHPAUHDC__@@HHPBDH@Z @2966
    ?TextOutW@DuiApi@@YAHPAUHDC__@@HHPB_WH@Z @2967
    ?ToggleExpanded@CTreeNodeUI@DuiLib@@QAEXXZ @2968
    ?TransEmotionTextByShortcut@DuiLib@@YA?AV?$basic_string@_WU?$char_traits@_W@std@@V?$allocator@_W@2@@std@@ABV23@@Z @2969
    ?TransferItemByXAxis@CFlexLayoutUI@DuiLib@@AAE?AUtagRECT@@ABUtagSIZE@@ABU3@@Z @2970
    ?TransferItemByYAxis@CFlexLayoutUI@DuiLib@@AAE?AUtagRECT@@ABUtagSIZE@@ABU3@@Z @2971
    ?TranslateAcceleratorW@CPaintManagerUI@DuiLib@@QAE_NPAUtagMSG@@@Z @2972
    ?TranslateAcceleratorW@CWebBrowserUI@DuiLib@@UAEJPAUtagMSG@@@Z @2973
    ?TranslateAcceleratorW@CWebBrowserUI@DuiLib@@UAGJPAUtagMSG@@PBU_GUID@@K@Z @2974
    ?TranslateMessage@CPaintManagerUI@DuiLib@@SA_NQAUtagMSG@@@Z @2975
    ?TranslateUrl@CWebBrowserUI@DuiLib@@UAGJKPA_WPAPA_W@Z @2976
    ?TraverseTextProcessEmoji@Emoji@DuiLib@@CAXABV?$basic_string@_WU?$char_traits@_W@std@@V?$allocator@_W@2@@std@@ABV?$function@$$A6AXHHV?$vector@IV?$allocator@I@std@@@std@@@Z@4@@Z @2977
    ?TxSendMessage@CRichEditCustomerUI@DuiLib@@UBEJIIJPAJ@Z @2978
    ?TxSendMessage@CRichEditUI@DuiLib@@UBEJIIJPAJ@Z @2979
    ?UnFreeze@CRichEditUI@DuiLib@@QAEXXZ @2980
    ?UnHookMouse@CMenuWnd@DuiLib@@IAEXXZ @2981
    ?UnInit@CPaintManagerUI@DuiLib@@QAEXPAUHWND__@@@Z @2982
    ?UnInitDragDropHelper@CPaintManagerUI@DuiLib@@AAEXXZ @2983
    ?UnLockRenderLayout@CRichEditUI@DuiLib@@UAEXXZ @2984
    ?UnScaleTextMetric@DuiApi@@YA?AUtagTEXTMETRICW@@PAU2@@Z @2985
    ?Undo@CRichEditUI@DuiLib@@QAE_NXZ @2986
    ?Union@CDuiRect@DuiLib@@QAEXAAV12@@Z @2987
    ?UnregisterTouchWindow@CTouchUtils@DuiLib@@SAHPAUHWND__@@@Z @2988
    ?Unscale@CDPIUtils@DuiLib@@SAHHH@Z @2989
    ?UnscalePoint@CDPIUtils@DuiLib@@SA?AUtagPOINT@@ABU3@H@Z @2990
    ?UnscaleRect@CDPIUtils@DuiLib@@SA?AUtagRECT@@ABU3@H@Z @2991
    ?UnscaleRound@CDPIUtils@DuiLib@@SAHHH@Z @2992
    ?UnscaleSize@CDPIUtils@DuiLib@@SA?AUtagSIZE@@ABU3@H@Z @2993
    ?UnscaleSizeRound@CDPIUtils@DuiLib@@SA?AUtagSIZE@@ABU3@H@Z @2994
    ?Unsubclass@CWindowWnd@DuiLib@@QAEXXZ @2995
    ?Update@CShadowUI@DuiLib@@IAEXPAUHWND__@@@Z @2996
    ?UpdateCornerImage@CContainerUI@DuiLib@@IAEXXZ @2997
    ?UpdateItemPositionRecord@CListBodyUI@DuiLib@@IAEXHHHHH@Z @2998
    ?UpdateLayeredWindow@DuiApi@@YAHPAUHWND__@@PAUHDC__@@PAUtagPOINT@@PAUtagSIZE@@12KPAU_BLENDFUNCTION@@K@Z @2999
    ?UpdateMeasureSize@CFlexLayoutUI@DuiLib@@AAEXPAVCControlUI@2@UtagRECT@@AAUtagSIZE@@@Z @3000
    ?UpdateMemBuffer@CRichEditCustomerUI@DuiLib@@IAEXPAUHDC__@@ABUtagRECT@@@Z @3001
    ?UpdateModifyString@CShadowUI@DuiLib@@IAEXXZ @3002
    ?UpdateNodesVisible@CTreeViewUI@DuiLib@@AAEXHH@Z @3003
    ?UpdateRECTWithBaselineRevise@CLabelUI@DuiLib@@IAEXAAUtagRECT@@@Z @3004
    ?UpdateShortcutMap@EmotionList@DuiLib@@AAEXHHABV?$basic_string@DU?$char_traits@D@std@@V?$allocator@D@2@@std@@0@Z @3005
    ?UpdateText@CDateTimeUI@DuiLib@@QAEXXZ @3006
    ?UpdateUI@CWebBrowserUI@DuiLib@@UAGJXZ @3007
    ?UpdateVisibleRange@CListBodyUI@DuiLib@@IAEXHHHHH@Z @3008
    ?UseDynamicAdjustScroller@CContainerUI@DuiLib@@UAE_NXZ @3009
    ?UseDynamicAdjustScroller@CListBodyUI@DuiLib@@UAE_NXZ @3010
    ?UseOldClipBegin@CRenderClip@DuiLib@@SAXPAUHDC__@@AAV12@@Z @3011
    ?UseOldClipEnd@CRenderClip@DuiLib@@SAXPAUHDC__@@AAV12@@Z @3012
    ?UseParentResource@CPaintManagerUI@DuiLib@@QAE_NPAV12@@Z @3013
    ?UsedVirtualWnd@CPaintManagerUI@DuiLib@@QAEX_N@Z @3014
    ?VirtualSeparatorMessageHandler@CPaintManagerUI@DuiLib@@QAEJIIJAA_N@Z @3015
    ?Window@CShadowUI@DuiLib@@QBEPAUHWND__@@XZ @3016
    ?_Assign_rv@?$_Ptr_base@VImage@Gdiplus@@@std@@QAEX$$QAV12@@Z @3017
    ?_Decref@?$_Ptr_base@VImage@Gdiplus@@@std@@QAEXXZ @3018
    ?_Decwref@?$_Ptr_base@VImage@Gdiplus@@@std@@QAEXXZ @3019
    ?_Expired@?$_Ptr_base@VImage@Gdiplus@@@std@@QBE_NXZ @3020
    ?_Failed@CMarkup@DuiLib@@AAE_NPB_W0@Z @3021
    ?_Get@?$_Ptr_base@VImage@Gdiplus@@@std@@QBEPAVImage@Gdiplus@@XZ @3022
    ?_GetBaseMessageMap@CNotifyPump@DuiLib@@KGPBUDUI_MSGMAP@2@XZ @3023
    ?_GetBaseMessageMap@WindowImplBase@DuiLib@@KGPBUDUI_MSGMAP@2@XZ @3024
    ?_Get_deleter@?$_Ptr_base@VImage@Gdiplus@@@std@@QBEPAXABVtype_info@@@Z @3025
    ?_MapAttributes@CMarkupNode@DuiLib@@AAEXXZ @3026
    ?_Parse@CDialogBuilder@DuiLib@@AAEPAVCControlUI@2@PAVCMarkupNode@2@PAV32@PAVCPaintManagerUI@2@@Z @3027
    ?_Parse@CMarkup@DuiLib@@AAE_NAAPA_WK@Z @3028
    ?_Parse@CMarkup@DuiLib@@AAE_NXZ @3029
    ?_ParseAttributes@CMarkup@DuiLib@@AAE_NAAPA_W@Z @3030
    ?_ParseAttributesFontSized@CMarkup@DuiLib@@AAE_NAAPA_W0@Z @3031
    ?_ParseData@CMarkup@DuiLib@@AAE_NAAPA_W0D@Z @3032
    ?_ParseMetaChar@CMarkup@DuiLib@@AAEXAAPA_W0@Z @3033
    ?_ReserveElement@CMarkup@DuiLib@@AAEPAUtagXMLELEMENT@12@XZ @3034
    ?_Reset0@?$_Ptr_base@VImage@Gdiplus@@@std@@QAEXPAVImage@Gdiplus@@PAV_Ref_count_base@2@@Z @3035
    ?_Reset@?$_Ptr_base@VImage@Gdiplus@@@std@@QAEXPAVImage@Gdiplus@@PAV_Ref_count_base@2@@Z @3036
    ?_Reset@?$_Ptr_base@VImage@Gdiplus@@@std@@QAEXPAVImage@Gdiplus@@PAV_Ref_count_base@2@_N@Z @3037
    ?_Reset@?$_Ptr_base@VImage@Gdiplus@@@std@@QAEXXZ @3038
    ?_Resetw@?$_Ptr_base@VImage@Gdiplus@@@std@@QAEXXZ @3039
    ?_SkipIdentifier@CMarkup@DuiLib@@ABEXAAPA_W@Z @3040
    ?_SkipIdentifier@CMarkup@DuiLib@@ABEXAAPB_W@Z @3041
    ?_SkipWhitespace@CMarkup@DuiLib@@ABEXAAPA_W@Z @3042
    ?_SkipWhitespace@CMarkup@DuiLib@@ABEXAAPB_W@Z @3043
    ?_Swap@?$_Ptr_base@VImage@Gdiplus@@@std@@QAEXAAV12@@Z @3044
    ?__ControlProc@CWindowWnd@DuiLib@@KGJPAUHWND__@@IIJ@Z @3045
    ?__FindControlFromClass@CPaintManagerUI@DuiLib@@CGPAVCControlUI@2@PAV32@PAX@Z @3046
    ?__FindControlFromCount@CPaintManagerUI@DuiLib@@CGPAVCControlUI@2@PAV32@PAX@Z @3047
    ?__FindControlFromName@CPaintManagerUI@DuiLib@@CGPAVCControlUI@2@PAV32@PAX@Z @3048
    ?__FindControlFromNameHash@CPaintManagerUI@DuiLib@@CGPAVCControlUI@2@PAV32@PAX@Z @3049
    ?__FindControlFromPoint@CPaintManagerUI@DuiLib@@CGPAVCControlUI@2@PAV32@PAX@Z @3050
    ?__FindControlFromShortcut@CPaintManagerUI@DuiLib@@CGPAVCControlUI@2@PAV32@PAX@Z @3051
    ?__FindControlFromTab@CPaintManagerUI@DuiLib@@CGPAVCControlUI@2@PAV32@PAX@Z @3052
    ?__FindControlFromTabOrder@CPaintManagerUI@DuiLib@@CGPAVCControlUI@2@PAV32@PAX@Z @3053
    ?__FindControlFromUpdate@CPaintManagerUI@DuiLib@@CGPAVCControlUI@2@PAV32@PAX@Z @3054
    ?__FindControlsFromClass@CPaintManagerUI@DuiLib@@CGPAVCControlUI@2@PAV32@PAX@Z @3055
    ?__WndProc@CWindowWnd@DuiLib@@KGJPAUHWND__@@IIJ@Z @3056
    ?_messageEntries@CNotifyPump@DuiLib@@0QBUDUI_MSGMAP_ENTRY@2@B @3057
    ?_messageEntries@WindowImplBase@DuiLib@@0QBUDUI_MSGMAP_ENTRY@2@B @3058
    ?accDoDefaultAction@CDefaultAccessibility@DuiLib@@UAGJUtagVARIANT@@@Z @3059
    ?accHitTest@CContainerAccessibility@DuiLib@@UAGJJJPAUtagVARIANT@@@Z @3060
    ?accHitTest@CControlAccessiblity@DuiLib@@UAGJJJPAUtagVARIANT@@@Z @3061
    ?accHitTest@CDefaultAccessibility@DuiLib@@UAGJJJPAUtagVARIANT@@@Z @3062
    ?accHitTest@CWindowAccessibility@DuiLib@@UAGJJJPAUtagVARIANT@@@Z @3063
    ?accLocation@CContainerAccessibility@DuiLib@@UAGJPAJ000UtagVARIANT@@@Z @3064
    ?accLocation@CControlAccessiblity@DuiLib@@UAGJPAJ000UtagVARIANT@@@Z @3065
    ?accLocation@CDefaultAccessibility@DuiLib@@UAGJPAJ000UtagVARIANT@@@Z @3066
    ?accLocation@CWindowAccessibility@DuiLib@@UAGJPAJ000UtagVARIANT@@@Z @3067
    ?accNavigate@CDefaultAccessibility@DuiLib@@UAGJJUtagVARIANT@@PAU3@@Z @3068
    ?accSelect@CDefaultAccessibility@DuiLib@@UAGJJUtagVARIANT@@@Z @3069
    ?calculateDelay@CContainerUI@DuiLib@@IAENN@Z @3070
    ?g_mouse_hook_id@CMenuWnd@DuiLib@@1HA @3071
    ?get@?$shared_ptr@VImage@Gdiplus@@@std@@QBEPAVImage@Gdiplus@@XZ @3072
    ?getLayoutGravity@CControlUI@DuiLib@@QAEKXZ @3073
    ?getOleUserData@CRichEditUI@DuiLib@@QAEHAAV?$vector@KV?$allocator@K@std@@@std@@@Z @3074
    ?getVideoWndAlpha@CPaintManagerUI@DuiLib@@QAEHXZ @3075
    ?get_accChild@CContainerAccessibility@DuiLib@@UAGJUtagVARIANT@@PAPAUIDispatch@@@Z @3076
    ?get_accChild@CControlAccessiblity@DuiLib@@UAGJUtagVARIANT@@PAPAUIDispatch@@@Z @3077
    ?get_accChild@CDefaultAccessibility@DuiLib@@UAGJUtagVARIANT@@PAPAUIDispatch@@@Z @3078
    ?get_accChild@CWindowAccessibility@DuiLib@@UAGJUtagVARIANT@@PAPAUIDispatch@@@Z @3079
    ?get_accChildCount@CContainerAccessibility@DuiLib@@UAGJPAJ@Z @3080
    ?get_accChildCount@CControlAccessiblity@DuiLib@@UAGJPAJ@Z @3081
    ?get_accChildCount@CDefaultAccessibility@DuiLib@@UAGJPAJ@Z @3082
    ?get_accChildCount@CWindowAccessibility@DuiLib@@UAGJPAJ@Z @3083
    ?get_accDefaultAction@CDefaultAccessibility@DuiLib@@UAGJUtagVARIANT@@PAPA_W@Z @3084
    ?get_accDescription@CContainerAccessibility@DuiLib@@UAGJUtagVARIANT@@PAPA_W@Z @3085
    ?get_accDescription@CControlAccessiblity@DuiLib@@UAGJUtagVARIANT@@PAPA_W@Z @3086
    ?get_accDescription@CDefaultAccessibility@DuiLib@@UAGJUtagVARIANT@@PAPA_W@Z @3087
    ?get_accDescription@CWindowAccessibility@DuiLib@@UAGJUtagVARIANT@@PAPA_W@Z @3088
    ?get_accFocus@CContainerAccessibility@DuiLib@@UAGJPAUtagVARIANT@@@Z @3089
    ?get_accFocus@CControlAccessiblity@DuiLib@@UAGJPAUtagVARIANT@@@Z @3090
    ?get_accFocus@CDefaultAccessibility@DuiLib@@UAGJPAUtagVARIANT@@@Z @3091
    ?get_accFocus@CWindowAccessibility@DuiLib@@UAGJPAUtagVARIANT@@@Z @3092
    ?get_accHelp@CDefaultAccessibility@DuiLib@@UAGJUtagVARIANT@@PAPA_W@Z @3093
    ?get_accHelpTopic@CDefaultAccessibility@DuiLib@@UAGJPAPA_WUtagVARIANT@@PAJ@Z @3094
    ?get_accKeyboardShortcut@CDefaultAccessibility@DuiLib@@UAGJUtagVARIANT@@PAPA_W@Z @3095
    ?get_accName@CContainerAccessibility@DuiLib@@UAGJUtagVARIANT@@PAPA_W@Z @3096
    ?get_accName@CControlAccessiblity@DuiLib@@UAGJUtagVARIANT@@PAPA_W@Z @3097
    ?get_accName@CDefaultAccessibility@DuiLib@@UAGJUtagVARIANT@@PAPA_W@Z @3098
    ?get_accName@CWindowAccessibility@DuiLib@@UAGJUtagVARIANT@@PAPA_W@Z @3099
    ?get_accParent@CContainerAccessibility@DuiLib@@UAGJPAPAUIDispatch@@@Z @3100
    ?get_accParent@CControlAccessiblity@DuiLib@@UAGJPAPAUIDispatch@@@Z @3101
    ?get_accParent@CDefaultAccessibility@DuiLib@@UAGJPAPAUIDispatch@@@Z @3102
    ?get_accParent@CWindowAccessibility@DuiLib@@UAGJPAPAUIDispatch@@@Z @3103
    ?get_accRole@CContainerAccessibility@DuiLib@@UAGJUtagVARIANT@@PAU3@@Z @3104
    ?get_accRole@CControlAccessiblity@DuiLib@@UAGJUtagVARIANT@@PAU3@@Z @3105
    ?get_accRole@CDefaultAccessibility@DuiLib@@UAGJUtagVARIANT@@PAU3@@Z @3106
    ?get_accRole@CWindowAccessibility@DuiLib@@UAGJUtagVARIANT@@PAU3@@Z @3107
    ?get_accSelection@CDefaultAccessibility@DuiLib@@UAGJPAUtagVARIANT@@@Z @3108
    ?get_accState@CControlAccessiblity@DuiLib@@UAGJUtagVARIANT@@PAU3@@Z @3109
    ?get_accState@CDefaultAccessibility@DuiLib@@UAGJUtagVARIANT@@PAU3@@Z @3110
    ?get_accState@COptionAccessibility@DuiLib@@UAGJUtagVARIANT@@PAU3@@Z @3111
    ?get_accState@CWindowAccessibility@DuiLib@@UAGJUtagVARIANT@@PAU3@@Z @3112
    ?get_accValue@CControlAccessiblity@DuiLib@@UAGJUtagVARIANT@@PAPA_W@Z @3113
    ?get_accValue@CDefaultAccessibility@DuiLib@@UAGJUtagVARIANT@@PAPA_W@Z @3114
    ?isScrollHot@CScrollBarUI@DuiLib@@QAE_NXZ @3115
    ?isScrollPush@CScrollBarUI@DuiLib@@QAE_NXZ @3116
    ?isScrolling@CContainerUI@DuiLib@@UAE_NXZ @3117
    ?isTransparentLayeredWnd@CPaintManagerUI@DuiLib@@QAE_NXZ @3118
    ?m_H@CPaintManagerUI@DuiLib@@0FA @3119
    ?m_L@CPaintManagerUI@DuiLib@@0FA @3120
    ?m_S@CPaintManagerUI@DuiLib@@0FA @3121
    ?m_aPlugins@CPaintManagerUI@DuiLib@@0VCStdPtrArray@2@A @3122
    ?m_aPreMessages@CPaintManagerUI@DuiLib@@0VCStdPtrArray@2@A @3123
    ?m_bCachedResourceZip@CPaintManagerUI@DuiLib@@0_NA @3124
    ?m_dLanguageID@CPaintManagerUI@DuiLib@@0KA @3125
    ?m_hInstance@CPaintManagerUI@DuiLib@@0PAUHINSTANCE__@@A @3126
    ?m_hResourceInstance@CPaintManagerUI@DuiLib@@0PAUHINSTANCE__@@A @3127
    ?m_hResourceZip@CPaintManagerUI@DuiLib@@0PAXA @3128
    ?m_lpResourceZIPBuffer@WindowImplBase@DuiLib@@1PAEA @3129
    ?m_pStrResourcePath@CPaintManagerUI@DuiLib@@0VCDuiString@2@A @3130
    ?m_pStrResourceZip@CPaintManagerUI@DuiLib@@0VCDuiString@2@A @3131
    ?messageMap@CNotifyPump@DuiLib@@1UDUI_MSGMAP@2@B @3132
    ?messageMap@WindowImplBase@DuiLib@@1UDUI_MSGMAP@2@B @3133
    ?mouse_hook_id_@CPaintManagerUI@DuiLib@@0HA @3134
    ?onMouseEnter@CContainerUI@DuiLib@@IAEXXZ @3135
    ?onMouseLeave@CContainerUI@DuiLib@@IAEXXZ @3136
    ?onSplitterPositionChanged@CHeaderControlUI@DuiLib@@AAE_NPAX@Z @3137
    ?put_accName@CDefaultAccessibility@DuiLib@@UAGJUtagVARIANT@@PA_W@Z @3138
    ?put_accValue@CControlAccessiblity@DuiLib@@UAGJUtagVARIANT@@PA_W@Z @3139
    ?put_accValue@CDefaultAccessibility@DuiLib@@UAGJUtagVARIANT@@PA_W@Z @3140
    ?reset@?$shared_ptr@VImage@Gdiplus@@@std@@QAEXXZ @3141
    ?sDebugEnableTrackingFocus@CControlUI@DuiLib@@1_NA @3142
    ?s_bHasInit@CShadowUI@DuiLib@@1_NA @3143
    ?s_context_menu_observer@?1??GetGlobalContextMenuObserver@CMenuWnd@DuiLib@@SAAAVObserverImpl@3@XZ@4V43@A @3144
    ?scrollBy@CContainerUI@DuiLib@@IAEXHH@Z @3145
    ?setAutoChangeBG@CPaintManagerUI@DuiLib@@QAEX_N@Z @3146
    ?setFontSizeOffSet@CPaintManagerUI@DuiLib@@QAEXH@Z @3147
    ?setNeedHwndFocus@CPaintManagerUI@DuiLib@@QAEX_N@Z @3148
    ?setScrollAutoHidden@CContainerUI@DuiLib@@UAEX_N@Z @3149
    ?setScrollAutoHidden@CListUI@DuiLib@@UAEX_N@Z @3150
    ?setTransparentLayeredWnd@CPaintManagerUI@DuiLib@@QAEX_N@Z @3151
    ?setVideoWndAlpha@CPaintManagerUI@DuiLib@@QAEXH@Z @3152
    ?stopScrolling@CContainerUI@DuiLib@@UAEXXZ @3153
    ?swap@?$shared_ptr@VImage@Gdiplus@@@std@@QAEXAAV12@@Z @3154
    ?unRegisterWindowClassAll@CWindowWnd@DuiLib@@SAXXZ @3155
    ?unique@?$shared_ptr@VImage@Gdiplus@@@std@@QBE_NXZ @3156
    ?use_count@?$_Ptr_base@VImage@Gdiplus@@@std@@QBEJXZ @3157
    ?xml_font_index@DuiLib@@3HA @3158
    png_access_version_number @3159
    png_benign_error @3160
    png_build_grayscale_palette @3161
    png_calloc @3162
    png_chunk_benign_error @3163
    png_chunk_error @3164
    png_chunk_warning @3165
    png_convert_from_struct_tm @3166
    png_convert_from_time_t @3167
    png_convert_to_rfc1123 @3168
    png_create_info_struct @3169
    png_create_read_struct @3170
    png_create_read_struct_2 @3171
    png_create_write_struct @3172
    png_create_write_struct_2 @3173
    png_data_freer @3174
    png_destroy_info_struct @3175
    png_destroy_read_struct @3176
    png_destroy_write_struct @3177
    png_error @3178
    png_free @3179
    png_free_data @3180
    png_free_default @3181
    png_get_IHDR @3182
    png_get_PLTE @3183
    png_get_bKGD @3184
    png_get_bit_depth @3185
    png_get_cHRM @3186
    png_get_cHRM_fixed @3187
    png_get_channels @3188
    png_get_chunk_cache_max @3189
    png_get_chunk_malloc_max @3190
    png_get_color_type @3191
    png_get_compression_buffer_size @3192
    png_get_compression_type @3193
    png_get_copyright @3194
    png_get_error_ptr @3195
    png_get_filter_type @3196
    png_get_gAMA @3197
    png_get_gAMA_fixed @3198
    png_get_hIST @3199
    png_get_header_ver @3200
    png_get_header_version @3201
    png_get_iCCP @3202
    png_get_image_height @3203
    png_get_image_width @3204
    png_get_int_32 @3205
    png_get_interlace_type @3206
    png_get_io_chunk_name @3207
    png_get_io_chunk_type @3208
    png_get_io_ptr @3209
    png_get_io_state @3210
    png_get_libpng_ver @3211
    png_get_mem_ptr @3212
    png_get_oFFs @3213
    png_get_pCAL @3214
    png_get_pHYs @3215
    png_get_pHYs_dpi @3216
    png_get_pixel_aspect_ratio @3217
    png_get_pixel_aspect_ratio_fixed @3218
    png_get_pixels_per_inch @3219
    png_get_pixels_per_meter @3220
    png_get_rgb_to_gray_status @3221
    png_get_rowbytes @3222
    png_get_rows @3223
    png_get_sBIT @3224
    png_get_sCAL @3225
    png_get_sCAL_fixed @3226
    png_get_sCAL_s @3227
    png_get_sPLT @3228
    png_get_sRGB @3229
    png_get_signature @3230
    png_get_tIME @3231
    png_get_tRNS @3232
    png_get_text @3233
    png_get_uint_16 @3234
    png_get_uint_31 @3235
    png_get_uint_32 @3236
    png_get_unknown_chunks @3237
    png_get_user_chunk_ptr @3238
    png_get_user_height_max @3239
    png_get_user_transform_ptr @3240
    png_get_user_width_max @3241
    png_get_valid @3242
    png_get_x_offset_inches @3243
    png_get_x_offset_inches_fixed @3244
    png_get_x_offset_microns @3245
    png_get_x_offset_pixels @3246
    png_get_x_pixels_per_inch @3247
    png_get_x_pixels_per_meter @3248
    png_get_y_offset_inches @3249
    png_get_y_offset_inches_fixed @3250
    png_get_y_offset_microns @3251
    png_get_y_offset_pixels @3252
    png_get_y_pixels_per_inch @3253
    png_get_y_pixels_per_meter @3254
    png_handle_as_unknown @3255
    png_info_init_3 @3256
    png_init_io @3257
    png_longjmp @3258
    png_malloc @3259
    png_malloc_default @3260
    png_malloc_warn @3261
    png_permit_mng_features @3262
    png_read_end @3263
    png_read_image @3264
    png_read_info @3265
    png_read_png @3266
    png_read_row @3267
    png_read_rows @3268
    png_read_update_info @3269
    png_reset_zstream @3270
    png_save_int_32 @3271
    png_save_uint_16 @3272
    png_save_uint_32 @3273
    png_set_IHDR @3274
    png_set_PLTE @3275
    png_set_add_alpha @3276
    png_set_bKGD @3277
    png_set_background @3278
    png_set_background_fixed @3279
    png_set_benign_errors @3280
    png_set_bgr @3281
    png_set_cHRM @3282
    png_set_cHRM_fixed @3283
    png_set_chunk_cache_max @3284
    png_set_chunk_malloc_max @3285
    png_set_compression_buffer_size @3286
    png_set_compression_level @3287
    png_set_compression_mem_level @3288
    png_set_compression_method @3289
    png_set_compression_strategy @3290
    png_set_compression_window_bits @3291
    png_set_crc_action @3292
    png_set_error_fn @3293
    png_set_expand @3294
    png_set_expand_gray_1_2_4_to_8 @3295
    png_set_filler @3296
    png_set_filter @3297
    png_set_filter_heuristics @3298
    png_set_filter_heuristics_fixed @3299
    png_set_flush @3300
    png_set_gAMA @3301
    png_set_gAMA_fixed @3302
    png_set_gamma @3303
    png_set_gamma_fixed @3304
    png_set_gray_to_rgb @3305
    png_set_hIST @3306
    png_set_iCCP @3307
    png_set_interlace_handling @3308
    png_set_invalid @3309
    png_set_invert_alpha @3310
    png_set_invert_mono @3311
    png_set_keep_unknown_chunks @3312
    png_set_longjmp_fn @3313
    png_set_mem_fn @3314
    png_set_oFFs @3315
    png_set_pCAL @3316
    png_set_pHYs @3317
    png_set_packing @3318
    png_set_packswap @3319
    png_set_palette_to_rgb @3320
    png_set_quantize @3321
    png_set_read_fn @3322
    png_set_read_status_fn @3323
    png_set_read_user_chunk_fn @3324
    png_set_read_user_transform_fn @3325
    png_set_rgb_to_gray @3326
    png_set_rgb_to_gray_fixed @3327
    png_set_rows @3328
    png_set_sBIT @3329
    png_set_sCAL @3330
    png_set_sCAL_fixed @3331
    png_set_sCAL_s @3332
    png_set_sPLT @3333
    png_set_sRGB @3334
    png_set_sRGB_gAMA_and_cHRM @3335
    png_set_shift @3336
    png_set_sig_bytes @3337
    png_set_strip_16 @3338
    png_set_strip_alpha @3339
    png_set_swap @3340
    png_set_swap_alpha @3341
    png_set_tIME @3342
    png_set_tRNS @3343
    png_set_tRNS_to_alpha @3344
    png_set_text @3345
    png_set_unknown_chunk_location @3346
    png_set_unknown_chunks @3347
    png_set_user_limits @3348
    png_set_user_transform_info @3349
    png_set_write_fn @3350
    png_set_write_status_fn @3351
    png_set_write_user_transform_fn @3352
    png_sig_cmp @3353
    png_start_read_image @3354
    png_warning @3355
    png_write_chunk @3356
    png_write_chunk_data @3357
    png_write_chunk_end @3358
    png_write_chunk_start @3359
    png_write_end @3360
    png_write_flush @3361
    png_write_image @3362
    png_write_info @3363
    png_write_info_before_PLTE @3364
    png_write_png @3365
    png_write_row @3366
    png_write_rows @3367
    png_write_sig @3368
